

Microchip MPLAB XC8 Assembler V3.00 build 20241204225717 
                                                                                               Wed Jun 04 16:12:29 2025

Microchip MPLAB XC8 C Compiler v3.00 (Free license) build 20241204225717 Og1 
     1                           	processor	16F887
     2                           	pagewidth 120
     3                           	opt	flic
     4                           	psect	idataBANK1,global,class=CODE,space=0,delta=2,noexec
     5                           	psect	idataBANK3,global,class=CODE,space=0,delta=2,noexec
     6                           	psect	strings,global,class=STRING,space=0,delta=2,noexec
     7                           	psect	nvBANK1,global,class=BANK1,space=1,delta=1,noexec
     8                           	psect	cinit,global,class=CODE,space=0,merge=1,delta=2
     9                           	psect	bssBANK1,global,class=BANK1,space=1,delta=1,noexec
    10                           	psect	dataBANK1,global,class=BANK1,space=1,delta=1,noexec
    11                           	psect	bssBANK3,global,class=BANK3,space=1,delta=1,noexec
    12                           	psect	dataBANK3,global,class=BANK3,space=1,delta=1,noexec
    13                           	psect	inittext,global,class=CODE,space=0,delta=2
    14                           	psect	clrtext,global,class=CODE,space=0,delta=2
    15                           	psect	cstackBANK1,global,class=BANK1,space=1,delta=1,noexec
    16                           	psect	cstackCOMMON,global,class=COMMON,space=1,delta=1,noexec
    17                           	psect	cstackBANK0,global,class=BANK0,space=1,delta=1,noexec
    18                           	psect	maintext,global,class=CODE,space=0,split=1,delta=2
    19                           	psect	text1,local,class=CODE,space=0,merge=1,delta=2
    20                           	psect	text2,local,class=CODE,space=0,merge=1,delta=2,group=1
    21                           	psect	text3,local,class=CODE,space=0,merge=1,delta=2,group=1
    22                           	psect	text4,local,class=CODE,space=0,merge=1,delta=2
    23                           	psect	text5,local,class=CODE,space=0,merge=1,delta=2
    24                           	psect	text6,local,class=CODE,space=0,merge=1,delta=2,group=1
    25                           	psect	text7,local,class=CODE,space=0,merge=1,delta=2,group=1
    26                           	psect	text8,local,class=CODE,space=0,merge=1,delta=2,group=1
    27                           	psect	text9,local,class=CODE,space=0,merge=1,delta=2,group=1
    28                           	psect	text10,local,class=CODE,space=0,merge=1,delta=2,group=1
    29                           	psect	text11,local,class=CODE,space=0,merge=1,delta=2,group=1
    30                           	psect	text12,local,class=CODE,space=0,merge=1,delta=2
    31                           	psect	text13,local,class=CODE,space=0,merge=1,delta=2
    32                           	dabs	1,0x7E,2
    33     0000                     
    34                           ; Generated 12/10/2023 GMT
    35                           ; 
    36                           ; Copyright © 2023, Microchip Technology Inc. and its subsidiaries ("Microchip")
    37                           ; All rights reserved.
    38                           ; 
    39                           ; This software is developed by Microchip Technology Inc. and its subsidiaries ("Microch
      +                          ip").
    40                           ; 
    41                           ; Redistribution and use in source and binary forms, with or without modification, are
    42                           ; permitted provided that the following conditions are met:
    43                           ; 
    44                           ;     1. Redistributions of source code must retain the above copyright notice, this lis
      +                          t of
    45                           ;        conditions and the following disclaimer.
    46                           ; 
    47                           ;     2. Redistributions in binary form must reproduce the above copyright notice, this 
      +                          list
    48                           ;        of conditions and the following disclaimer in the documentation and/or other
    49                           ;        materials provided with the distribution. Publication is not required when
    50                           ;        this file is used in an embedded application.
    51                           ; 
    52                           ;     3. Microchip's name may not be used to endorse or promote products derived from th
      +                          is
    53                           ;        software without specific prior written permission.
    54                           ; 
    55                           ; THIS SOFTWARE IS PROVIDED BY MICROCHIP "AS IS" AND ANY EXPRESS OR IMPLIED WARRANTIES,
    56                           ; INCLUDING, BUT NOT LIMITED TO, THE IMPLIED WARRANTIES OF MERCHANTABILITY AND FITNESS F
      +                          OR
    57                           ; PURPOSE ARE DISCLAIMED.  IN NO EVENT SHALL MICROCHIP BE LIABLE FOR ANY DIRECT, INDIREC
      +                          T,
    58                           ; INCIDENTAL, SPECIAL, EXEMPLARY, OR CONSEQUENTIAL DAMAGES (INCLUDING BUT NOT LIMITED TO
    59                           ; PROCUREMENT OF SUBSTITUTE GOODS OR SERVICES; LOSS OF USE, DATA OR PROFITS; OR BUSINESS
    60                           ; INTERRUPTION) HOWSOEVER CAUSED AND ON ANY THEORY OF LIABILITY, WHETHER IN CONTRACT, ST
      +                          RICT
    61                           ; LIABILITY, OR TORT (INCLUDING NEGLIGENCE OR OTHERWISE) ARISING IN ANY WAY OUT OF THE U
      +                          SE OF
    62                           ; THIS SOFTWARE, EVEN IF ADVISED OF THE POSSIBILITY OF SUCH DAMAGE.
    63                           ; 
    64                           ; 
    65                           ; Code-generator required, PIC16F887 Definitions
    66                           ; 
    67                           ; SFR Addresses
    68     0004                     fsr             equ	4
    69     0004                     fsr0            equ	4
    70     0000                     indf            equ	0
    71     0000                     indf0           equ	0
    72     0002                     pc              equ	2
    73     0002                     pcl             equ	2
    74     000A                     pclath          equ	10
    75     0003                     status          equ	3
    76     0000                     INDF            equ	0	;# 
    77     0001                     TMR0            equ	1	;# 
    78     0002                     PCL             equ	2	;# 
    79     0003                     STATUS          equ	3	;# 
    80     0004                     FSR             equ	4	;# 
    81     0005                     PORTA           equ	5	;# 
    82     0006                     PORTB           equ	6	;# 
    83     0007                     PORTC           equ	7	;# 
    84     0008                     PORTD           equ	8	;# 
    85     0009                     PORTE           equ	9	;# 
    86     000A                     PCLATH          equ	10	;# 
    87     000B                     INTCON          equ	11	;# 
    88     000C                     PIR1            equ	12	;# 
    89     000D                     PIR2            equ	13	;# 
    90     000E                     TMR1            equ	14	;# 
    91     000E                     TMR1L           equ	14	;# 
    92     000F                     TMR1H           equ	15	;# 
    93     0010                     T1CON           equ	16	;# 
    94     0011                     TMR2            equ	17	;# 
    95     0012                     T2CON           equ	18	;# 
    96     0013                     SSPBUF          equ	19	;# 
    97     0014                     SSPCON          equ	20	;# 
    98     0015                     CCPR1           equ	21	;# 
    99     0015                     CCPR1L          equ	21	;# 
   100     0016                     CCPR1H          equ	22	;# 
   101     0017                     CCP1CON         equ	23	;# 
   102     0018                     RCSTA           equ	24	;# 
   103     0019                     TXREG           equ	25	;# 
   104     001A                     RCREG           equ	26	;# 
   105     001B                     CCPR2           equ	27	;# 
   106     001B                     CCPR2L          equ	27	;# 
   107     001C                     CCPR2H          equ	28	;# 
   108     001D                     CCP2CON         equ	29	;# 
   109     001E                     ADRESH          equ	30	;# 
   110     001F                     ADCON0          equ	31	;# 
   111     0081                     OPTION_REG      equ	129	;# 
   112     0085                     TRISA           equ	133	;# 
   113     0086                     TRISB           equ	134	;# 
   114     0087                     TRISC           equ	135	;# 
   115     0088                     TRISD           equ	136	;# 
   116     0089                     TRISE           equ	137	;# 
   117     008C                     PIE1            equ	140	;# 
   118     008D                     PIE2            equ	141	;# 
   119     008E                     PCON            equ	142	;# 
   120     008F                     OSCCON          equ	143	;# 
   121     0090                     OSCTUNE         equ	144	;# 
   122     0091                     SSPCON2         equ	145	;# 
   123     0092                     PR2             equ	146	;# 
   124     0093                     SSPADD          equ	147	;# 
   125     0093                     SSPMSK          equ	147	;# 
   126     0093                     MSK             equ	147	;# 
   127     0094                     SSPSTAT         equ	148	;# 
   128     0095                     WPUB            equ	149	;# 
   129     0096                     IOCB            equ	150	;# 
   130     0097                     VRCON           equ	151	;# 
   131     0098                     TXSTA           equ	152	;# 
   132     0099                     SPBRG           equ	153	;# 
   133     009A                     SPBRGH          equ	154	;# 
   134     009B                     PWM1CON         equ	155	;# 
   135     009C                     ECCPAS          equ	156	;# 
   136     009D                     PSTRCON         equ	157	;# 
   137     009E                     ADRESL          equ	158	;# 
   138     009F                     ADCON1          equ	159	;# 
   139     0105                     WDTCON          equ	261	;# 
   140     0107                     CM1CON0         equ	263	;# 
   141     0108                     CM2CON0         equ	264	;# 
   142     0109                     CM2CON1         equ	265	;# 
   143     010C                     EEDATA          equ	268	;# 
   144     010C                     EEDAT           equ	268	;# 
   145     010D                     EEADR           equ	269	;# 
   146     010E                     EEDATH          equ	270	;# 
   147     010F                     EEADRH          equ	271	;# 
   148     0185                     SRCON           equ	389	;# 
   149     0187                     BAUDCTL         equ	391	;# 
   150     0188                     ANSEL           equ	392	;# 
   151     0189                     ANSELH          equ	393	;# 
   152     018C                     EECON1          equ	396	;# 
   153     018D                     EECON2          equ	397	;# 
   154     0000                     INDF            equ	0	;# 
   155     0001                     TMR0            equ	1	;# 
   156     0002                     PCL             equ	2	;# 
   157     0003                     STATUS          equ	3	;# 
   158     0004                     FSR             equ	4	;# 
   159     0005                     PORTA           equ	5	;# 
   160     0006                     PORTB           equ	6	;# 
   161     0007                     PORTC           equ	7	;# 
   162     0008                     PORTD           equ	8	;# 
   163     0009                     PORTE           equ	9	;# 
   164     000A                     PCLATH          equ	10	;# 
   165     000B                     INTCON          equ	11	;# 
   166     000C                     PIR1            equ	12	;# 
   167     000D                     PIR2            equ	13	;# 
   168     000E                     TMR1            equ	14	;# 
   169     000E                     TMR1L           equ	14	;# 
   170     000F                     TMR1H           equ	15	;# 
   171     0010                     T1CON           equ	16	;# 
   172     0011                     TMR2            equ	17	;# 
   173     0012                     T2CON           equ	18	;# 
   174     0013                     SSPBUF          equ	19	;# 
   175     0014                     SSPCON          equ	20	;# 
   176     0015                     CCPR1           equ	21	;# 
   177     0015                     CCPR1L          equ	21	;# 
   178     0016                     CCPR1H          equ	22	;# 
   179     0017                     CCP1CON         equ	23	;# 
   180     0018                     RCSTA           equ	24	;# 
   181     0019                     TXREG           equ	25	;# 
   182     001A                     RCREG           equ	26	;# 
   183     001B                     CCPR2           equ	27	;# 
   184     001B                     CCPR2L          equ	27	;# 
   185     001C                     CCPR2H          equ	28	;# 
   186     001D                     CCP2CON         equ	29	;# 
   187     001E                     ADRESH          equ	30	;# 
   188     001F                     ADCON0          equ	31	;# 
   189     0081                     OPTION_REG      equ	129	;# 
   190     0085                     TRISA           equ	133	;# 
   191     0086                     TRISB           equ	134	;# 
   192     0087                     TRISC           equ	135	;# 
   193     0088                     TRISD           equ	136	;# 
   194     0089                     TRISE           equ	137	;# 
   195     008C                     PIE1            equ	140	;# 
   196     008D                     PIE2            equ	141	;# 
   197     008E                     PCON            equ	142	;# 
   198     008F                     OSCCON          equ	143	;# 
   199     0090                     OSCTUNE         equ	144	;# 
   200     0091                     SSPCON2         equ	145	;# 
   201     0092                     PR2             equ	146	;# 
   202     0093                     SSPADD          equ	147	;# 
   203     0093                     SSPMSK          equ	147	;# 
   204     0093                     MSK             equ	147	;# 
   205     0094                     SSPSTAT         equ	148	;# 
   206     0095                     WPUB            equ	149	;# 
   207     0096                     IOCB            equ	150	;# 
   208     0097                     VRCON           equ	151	;# 
   209     0098                     TXSTA           equ	152	;# 
   210     0099                     SPBRG           equ	153	;# 
   211     009A                     SPBRGH          equ	154	;# 
   212     009B                     PWM1CON         equ	155	;# 
   213     009C                     ECCPAS          equ	156	;# 
   214     009D                     PSTRCON         equ	157	;# 
   215     009E                     ADRESL          equ	158	;# 
   216     009F                     ADCON1          equ	159	;# 
   217     0105                     WDTCON          equ	261	;# 
   218     0107                     CM1CON0         equ	263	;# 
   219     0108                     CM2CON0         equ	264	;# 
   220     0109                     CM2CON1         equ	265	;# 
   221     010C                     EEDATA          equ	268	;# 
   222     010C                     EEDAT           equ	268	;# 
   223     010D                     EEADR           equ	269	;# 
   224     010E                     EEDATH          equ	270	;# 
   225     010F                     EEADRH          equ	271	;# 
   226     0185                     SRCON           equ	389	;# 
   227     0187                     BAUDCTL         equ	391	;# 
   228     0188                     ANSEL           equ	392	;# 
   229     0189                     ANSELH          equ	393	;# 
   230     018C                     EECON1          equ	396	;# 
   231     018D                     EECON2          equ	397	;# 
   232                           
   233                           	psect	idataBANK1
   234     0005                     __pidataBANK1:
   235                           
   236                           ;initializer for _flashFlag
   237     0005  3401               	retlw	1
   238                           
   239                           	psect	idataBANK3
   240     0BD4                     __pidataBANK3:
   241                           
   242                           ;initializer for Scale_Display@F1443
   243     0BD4  3400               	retlw	0
   244     0BD5  3400               	retlw	0
   245     0BD6  34F0               	retlw	240
   246     0BD7  3441               	retlw	65
   247     0BD8  3400               	retlw	0
   248     0BD9  3400               	retlw	0
   249     0BDA  3448               	retlw	72
   250     0BDB  3442               	retlw	66
   251     0BDC  3400               	retlw	0
   252     0BDD  3400               	retlw	0
   253     0BDE  3496               	retlw	150
   254     0BDF  3442               	retlw	66
   255     0BE0  3400               	retlw	0
   256     0BE1  3400               	retlw	0
   257     0BE2  34C8               	retlw	200
   258     0BE3  3442               	retlw	66
   259     0BE4  3400               	retlw	0
   260     0BE5  3400               	retlw	0
   261     0BE6  3416               	retlw	22
   262     0BE7  3443               	retlw	67
   263     0BE8  3400               	retlw	0
   264     0BE9  3400               	retlw	0
   265     0BEA  3448               	retlw	72
   266     0BEB  3443               	retlw	67
   267     0BEC  3400               	retlw	0
   268     0BED  3400               	retlw	0
   269     0BEE  3496               	retlw	150
   270     0BEF  3443               	retlw	67
   271     0BF0  3400               	retlw	0
   272     0BF1  3400               	retlw	0
   273     0BF2  34FA               	retlw	250
   274     0BF3  3443               	retlw	67
   275                           
   276                           	psect	strings
   277     0800                     __pstrings:
   278     0800                     stringtab:
   279     0800                     __stringtab:
   280     0800                     stringcode:	
   281                           ;	String table - string pointers are 1 byte each
   282                           
   283     0800                     stringdir:
   284     0800  3008               	movlw	high stringdir
   285     0801  008A               	movwf	10
   286     0802  0804               	movf	4,w
   287     0803  0A84               	incf	4,f
   288     0804  0782               	addwf	2,f
   289     0805                     __stringbase:
   290     0805  3400               	retlw	0
   291     0806                     __end_of__stringtab:
   292     0806                     _LED_FONT_TABLE:
   293     0806  343F               	retlw	63
   294     0807  3406               	retlw	6
   295     0808  345B               	retlw	91
   296     0809  344F               	retlw	79
   297     080A  3466               	retlw	102
   298     080B  346D               	retlw	109
   299     080C  347D               	retlw	125
   300     080D  3407               	retlw	7
   301     080E  347F               	retlw	127
   302     080F  346F               	retlw	111
   303     0810                     __end_of_LED_FONT_TABLE:
   304     0810                     _MODE_FONT_TABLE:
   305     0810  3477               	retlw	119
   306     0811  341F               	retlw	31
   307     0812  344E               	retlw	78
   308     0813  343D               	retlw	61
   309     0814  344F               	retlw	79
   310     0815  3447               	retlw	71
   311     0816  347B               	retlw	123
   312     0817  3437               	retlw	55
   313     0818                     __end_of_MODE_FONT_TABLE:
   314                           
   315                           	psect	nvBANK1
   316     00EA                     __pnvBANK1:
   317     00EA                     _display_val:
   318     00EA                     	ds	2
   319     00EC                     _adc_val:
   320     00EC                     	ds	2
   321     0014                     _SSPCON         set	20
   322     0007                     _PORTCbits      set	7
   323     0013                     _SSPBUF         set	19
   324     001E                     _ADRESH         set	30
   325     001F                     _ADCON0         set	31
   326     00F9                     _GO_nDONE       set	249
   327     0094                     _SSPSTAT        set	148
   328     0087                     _TRISCbits      set	135
   329     0094                     _SSPSTATbits    set	148
   330     009E                     _ADRESL         set	158
   331     009F                     _ADCON1         set	159
   332     0431                     _TRISB1         set	1073
   333     0430                     _TRISB0         set	1072
   334     043D                     _TRISC5         set	1085
   335     043B                     _TRISC3         set	1083
   336     0438                     _TRISC0         set	1080
   337     0428                     _TRISA0         set	1064
   338                           
   339                           	psect	cinit
   340     07D7                     start_initialization:	
   341                           ; #config settings
   342                           
   343     07D7                     __initialization:
   344                           
   345                           ; Initialize objects allocated to BANK3
   346     07D7  1783               	bsf	3,7	;select IRP bank2
   347     07D8  30B0               	movlw	low (__pdataBANK3+32)
   348     07D9  00FD               	movwf	btemp+-1
   349     07DA  300B               	movlw	high __pidataBANK3
   350     07DB  00FE               	movwf	btemp
   351     07DC  30D4               	movlw	low __pidataBANK3
   352     07DD  00FF               	movwf	btemp+1
   353     07DE  3090               	movlw	low __pdataBANK3
   354     07DF  0084               	movwf	4
   355     07E0  120A  158A  23C5  120A  118A  	fcall	init_ram0
   356                           
   357                           ; Initialize objects allocated to BANK1
   358     07E5  1683               	bsf	3,5	;RP0=1, select bank1
   359     07E6  1303               	bcf	3,6	;RP1=0, select bank1
   360     07E7  120A  118A  2005  120A  118A  	fcall	__pidataBANK1	;fetch initializer
   361     07EC  00EE               	movwf	__pdataBANK1& (0+127)
   362                           
   363                           ; Clear objects allocated to BANK3
   364     07ED  1683               	bsf	3,5	;RP0=1, select bank3
   365     07EE  1703               	bsf	3,6	;RP1=1, select bank3
   366     07EF  01B0               	clrf	__pbssBANK3& (0+127)
   367     07F0  01B1               	clrf	(__pbssBANK3+1)& (0+127)
   368     07F1  01B2               	clrf	(__pbssBANK3+2)& (0+127)
   369     07F2  01B3               	clrf	(__pbssBANK3+3)& (0+127)
   370                           
   371                           ; Clear objects allocated to BANK1
   372     07F3  1383               	bcf	3,7	;select IRP bank0
   373     07F4  30D7               	movlw	low __pbssBANK1
   374     07F5  0084               	movwf	4
   375     07F6  30EA               	movlw	low (__pbssBANK1+19)
   376     07F7  120A  118A  2006  120A  118A  	fcall	clear_ram0
   377     07FC                     end_of_initialization:	
   378                           ;End of C runtime variable initialization code
   379                           
   380     07FC                     __end_of__initialization:
   381     07FC  0183               	clrf	3
   382     07FD  120A  158A  2D63   	ljmp	_main	;jump to C main() function
   383                           
   384                           	psect	bssBANK1
   385     00D7                     __pbssBANK1:
   386     00D7                     _digits:
   387     00D7                     	ds	4
   388     00DB                     _flash_timer:
   389     00DB                     	ds	2
   390     00DD                     _displayValue:
   391     00DD                     	ds	2
   392     00DF                     _adcValue:
   393     00DF                     	ds	2
   394     00E1                     main@flash_state:
   395     00E1                     	ds	1
   396     00E2                     _flash_on:
   397     00E2                     	ds	1
   398     00E3                     _mode:
   399     00E3                     	ds	1
   400     00E4                     _flashCount:
   401     00E4                     	ds	1
   402     00E5                     _displayMode:
   403     00E5                     	ds	1
   404     00E6                     _digit_val:
   405     00E6                     	ds	4
   406                           
   407                           	psect	dataBANK1
   408     00EE                     __pdataBANK1:
   409     00EE                     _flashFlag:
   410     00EE                     	ds	1
   411                           
   412                           	psect	bssBANK3
   413     01B0                     __pbssBANK3:
   414     01B0                     main@F1448:
   415     01B0                     	ds	4
   416                           
   417                           	psect	dataBANK3
   418     0190                     __pdataBANK3:
   419     0190                     Scale_Display@F1443:
   420     0190                     	ds	32
   421                           
   422                           	psect	inittext
   423     0BC1                     init_fetch0:	
   424                           ;	Called with low address in FSR and high address in W
   425                           
   426     0BC1  087E               	movf	btemp,w
   427     0BC2  008A               	movwf	10
   428     0BC3  087F               	movf	btemp+1,w
   429     0BC4  0082               	movwf	2
   430     0BC5                     init_ram0:	
   431                           ;Called with:
   432                           ;	high address of idata address in btemp 
   433                           ;	low address of idata address in btemp+1 
   434                           ;	low address of data in FSR
   435                           ;	high address + 1 of data in btemp-1
   436                           
   437     0BC5  120A  158A  23C1  120A  158A  	fcall	init_fetch0
   438     0BCA  0080               	movwf	0
   439     0BCB  0A84               	incf	4,f
   440     0BCC  0804               	movf	4,w
   441     0BCD  067D               	xorwf	btemp+-1,w
   442     0BCE  1903               	btfsc	3,2
   443     0BCF  3400               	retlw	0
   444     0BD0  0AFF               	incf	btemp+1,f
   445     0BD1  1903               	btfsc	3,2
   446     0BD2  0AFE               	incf	btemp,f
   447     0BD3  2BC5               	goto	init_ram0
   448                           
   449                           	psect	clrtext
   450     0006                     clear_ram0:	
   451                           ;	Called with FSR containing the base address, and
   452                           ;	W with the last address+1
   453                           
   454     0006  0064               	clrwdt	;clear the watchdog before getting into this loop
   455     0007                     clrloop0:
   456     0007  0180               	clrf	0	;clear RAM location pointed to by FSR
   457     0008  0A84               	incf	4,f	;increment pointer
   458     0009  0604               	xorwf	4,w	;XOR with final address
   459     000A  1903               	btfsc	3,2	;have we reached the end yet?
   460     000B  3400               	retlw	0	;all done for this memory range, return
   461     000C  0604               	xorwf	4,w	;XOR again to restore value
   462     000D  2807               	goto	clrloop0	;do the next byte
   463                           
   464                           	psect	cstackBANK1
   465     00A0                     __pcstackBANK1:
   466     00A0                     ___fltol@sign1:
   467                           
   468                           ; 1 bytes @ 0x0
   469     00A0                     	ds	1
   470     00A1                     ___fltol@exp1:
   471                           
   472                           ; 1 bytes @ 0x1
   473     00A1                     	ds	1
   474     00A2                     ?_Scale_Display:
   475     00A2                     Scale_Display@adc_val:	
   476                           ; 2 bytes @ 0x2
   477                           
   478                           
   479                           ; 2 bytes @ 0x2
   480     00A2                     	ds	2
   481     00A4                     Scale_Display@mode:
   482                           
   483                           ; 1 bytes @ 0x4
   484     00A4                     	ds	1
   485     00A5                     ??_Scale_Display:
   486                           
   487                           ; 1 bytes @ 0x5
   488     00A5                     	ds	4
   489     00A9                     Scale_Display@scale_max:
   490                           
   491                           ; 32 bytes @ 0x9
   492     00A9                     	ds	32
   493     00C9                     Scale_Display@current:
   494                           
   495                           ; 4 bytes @ 0x29
   496     00C9                     	ds	4
   497     00CD                     Scale_Display@flow:
   498                           
   499                           ; 4 bytes @ 0x2D
   500     00CD                     	ds	4
   501     00D1                     ??_main:
   502                           
   503                           ; 1 bytes @ 0x31
   504     00D1                     	ds	2
   505     00D3                     main@blank:
   506                           
   507                           ; 4 bytes @ 0x33
   508     00D3                     	ds	4
   509                           
   510                           	psect	cstackCOMMON
   511     0070                     __pcstackCOMMON:
   512     0070                     ?_ADC_Init:
   513     0070                     ?_Send_LED_Data:	
   514                           ; 1 bytes @ 0x0
   515                           
   516     0070                     ?_main:	
   517                           ; 1 bytes @ 0x0
   518                           
   519     0070                     ?__Umul8_16:	
   520                           ; 1 bytes @ 0x0
   521                           
   522     0070                     ?_Read_ADC:	
   523                           ; 2 bytes @ 0x0
   524                           
   525     0070                     ?___lwdiv:	
   526                           ; 2 bytes @ 0x0
   527                           
   528     0070                     ?___xxtofl:	
   529                           ; 2 bytes @ 0x0
   530                           
   531     0070                     Send_LED_Data@digits:	
   532                           ; 4 bytes @ 0x0
   533                           
   534     0070                     __Umul8_16@multiplicand:	
   535                           ; 1 bytes @ 0x0
   536                           
   537     0070                     ___lwdiv@divisor:	
   538                           ; 1 bytes @ 0x0
   539                           
   540     0070                     ___xxtofl@val:	
   541                           ; 2 bytes @ 0x0
   542                           
   543     0070                     ??_ADC_Init:	
   544                           ; 4 bytes @ 0x0
   545                           
   546                           
   547                           ; 1 bytes @ 0x0
   548     0070                     	ds	1
   549     0071                     Send_LED_Data@mode:
   550                           
   551                           ; 1 bytes @ 0x1
   552     0071                     	ds	1
   553     0072                     ___lwdiv@dividend:
   554     0072                     ??__Umul8_16:	
   555                           ; 2 bytes @ 0x2
   556                           
   557     0072                     ??_Read_ADC:	
   558                           ; 1 bytes @ 0x2
   559                           
   560     0072                     ??_Send_LED_Data:	
   561                           ; 1 bytes @ 0x2
   562                           
   563                           
   564                           ; 1 bytes @ 0x2
   565     0072                     	ds	1
   566     0073                     Send_LED_Data@i:
   567                           
   568                           ; 2 bytes @ 0x3
   569     0073                     	ds	1
   570     0074                     ___lwdiv@quotient:
   571     0074                     __Umul8_16@product:	
   572                           ; 2 bytes @ 0x4
   573                           
   574     0074                     ??___lwdiv:	
   575                           ; 2 bytes @ 0x4
   576                           
   577     0074                     ??___xxtofl:	
   578                           ; 1 bytes @ 0x4
   579                           
   580                           
   581                           ; 1 bytes @ 0x4
   582     0074                     	ds	2
   583     0076                     ___lwdiv@counter:
   584     0076                     __Umul8_16@word_mpld:	
   585                           ; 1 bytes @ 0x6
   586                           
   587                           
   588                           ; 2 bytes @ 0x6
   589     0076                     	ds	1
   590     0077                     ?___lwmod:
   591     0077                     ___lwmod@divisor:	
   592                           ; 2 bytes @ 0x7
   593                           
   594                           
   595                           ; 2 bytes @ 0x7
   596     0077                     	ds	1
   597     0078                     __Umul8_16@multiplier:
   598     0078                     ___xxtofl@sign:	
   599                           ; 1 bytes @ 0x8
   600                           
   601                           
   602                           ; 1 bytes @ 0x8
   603     0078                     	ds	1
   604     0079                     ___xxtofl@exp:
   605     0079                     ___lwmod@dividend:	
   606                           ; 1 bytes @ 0x9
   607                           
   608                           
   609                           ; 2 bytes @ 0x9
   610     0079                     	ds	1
   611     007A                     ___xxtofl@arg:
   612                           
   613                           ; 4 bytes @ 0xA
   614     007A                     	ds	1
   615     007B                     ___lwmod@counter:
   616     007B                     ??___lwmod:	
   617                           ; 1 bytes @ 0xB
   618                           
   619                           
   620                           ; 1 bytes @ 0xB
   621     007B                     	ds	1
   622     007C                     ??_Split_Display:
   623                           
   624                           ; 1 bytes @ 0xC
   625     007C                     	ds	2
   626                           
   627                           	psect	cstackBANK0
   628     0020                     __pcstackBANK0:
   629     0020                     ?_Split_Display:
   630     0020                     ?___fldiv:	
   631                           ; 1 bytes @ 0x0
   632                           
   633     0020                     Split_Display@display:	
   634                           ; 4 bytes @ 0x0
   635                           
   636     0020                     ___fldiv@a:	
   637                           ; 2 bytes @ 0x0
   638                           
   639                           
   640                           ; 4 bytes @ 0x0
   641     0020                     	ds	2
   642     0022                     Split_Display@digits:
   643                           
   644                           ; 1 bytes @ 0x2
   645     0022                     	ds	2
   646     0024                     ___fldiv@b:
   647                           
   648                           ; 4 bytes @ 0x4
   649     0024                     	ds	4
   650     0028                     ??___fldiv:
   651                           
   652                           ; 1 bytes @ 0x8
   653     0028                     	ds	5
   654     002D                     ___fldiv@rem:
   655                           
   656                           ; 4 bytes @ 0xD
   657     002D                     	ds	4
   658     0031                     ___fldiv@sign:
   659                           
   660                           ; 1 bytes @ 0x11
   661     0031                     	ds	1
   662     0032                     ___fldiv@new_exp:
   663                           
   664                           ; 2 bytes @ 0x12
   665     0032                     	ds	2
   666     0034                     ___fldiv@grs:
   667                           
   668                           ; 4 bytes @ 0x14
   669     0034                     	ds	4
   670     0038                     ___fldiv@bexp:
   671                           
   672                           ; 1 bytes @ 0x18
   673     0038                     	ds	1
   674     0039                     ___fldiv@aexp:
   675                           
   676                           ; 1 bytes @ 0x19
   677     0039                     	ds	1
   678     003A                     ?___flmul:
   679     003A                     ___flmul@b:	
   680                           ; 4 bytes @ 0x1A
   681                           
   682                           
   683                           ; 4 bytes @ 0x1A
   684     003A                     	ds	4
   685     003E                     ___flmul@a:
   686                           
   687                           ; 4 bytes @ 0x1E
   688     003E                     	ds	4
   689     0042                     ??___flmul:
   690                           
   691                           ; 1 bytes @ 0x22
   692     0042                     	ds	5
   693     0047                     ___flmul@sign:
   694                           
   695                           ; 1 bytes @ 0x27
   696     0047                     	ds	1
   697     0048                     ___flmul@grs:
   698                           
   699                           ; 4 bytes @ 0x28
   700     0048                     	ds	4
   701     004C                     ___flmul@aexp:
   702                           
   703                           ; 1 bytes @ 0x2C
   704     004C                     	ds	1
   705     004D                     ___flmul@bexp:
   706                           
   707                           ; 1 bytes @ 0x2D
   708     004D                     	ds	1
   709     004E                     ___flmul@prod:
   710                           
   711                           ; 4 bytes @ 0x2E
   712     004E                     	ds	4
   713     0052                     ___flmul@temp:
   714                           
   715                           ; 2 bytes @ 0x32
   716     0052                     	ds	2
   717     0054                     ?___fladd:
   718     0054                     ___fladd@b:	
   719                           ; 4 bytes @ 0x34
   720                           
   721                           
   722                           ; 4 bytes @ 0x34
   723     0054                     	ds	4
   724     0058                     ___fladd@a:
   725                           
   726                           ; 4 bytes @ 0x38
   727     0058                     	ds	4
   728     005C                     ??___fladd:
   729                           
   730                           ; 1 bytes @ 0x3C
   731     005C                     	ds	8
   732     0064                     ___fladd@signs:
   733                           
   734                           ; 1 bytes @ 0x44
   735     0064                     	ds	1
   736     0065                     ___fladd@aexp:
   737                           
   738                           ; 1 bytes @ 0x45
   739     0065                     	ds	1
   740     0066                     ___fladd@bexp:
   741                           
   742                           ; 1 bytes @ 0x46
   743     0066                     	ds	1
   744     0067                     ___fladd@grs:
   745                           
   746                           ; 1 bytes @ 0x47
   747     0067                     	ds	1
   748     0068                     ?___fltol:
   749     0068                     ___fltol@f1:	
   750                           ; 4 bytes @ 0x48
   751                           
   752                           
   753                           ; 4 bytes @ 0x48
   754     0068                     	ds	4
   755     006C                     ??___fltol:
   756                           
   757                           ; 1 bytes @ 0x4C
   758     006C                     	ds	4
   759                           
   760                           	psect	maintext
   761     0D63                     __pmaintext:	
   762 ;;
   763 ;;Main: autosize = 0, tempsize = 2, incstack = 0, save=0
   764 ;;
   765 ;; *************** function _main *****************
   766 ;; Defined at:
   767 ;;		line 54 in file "../flowmeter5_main.c"
   768 ;; Parameters:    Size  Location     Type
   769 ;;		None
   770 ;; Auto vars:     Size  Location     Type
   771 ;;  blank           4   51[BANK1 ] unsigned char [4]
   772 ;; Return value:  Size  Location     Type
   773 ;;                  1    wreg      void 
   774 ;; Registers used:
   775 ;;		wreg, fsr0l, fsr0h, status,2, status,0, btemp+1, pclath, cstack
   776 ;; Tracked objects:
   777 ;;		On entry : B00/0
   778 ;;		On exit  : 0/0
   779 ;;		Unchanged: 0/0
   780 ;; Data sizes:     COMMON   BANK0   BANK1   BANK3   BANK2
   781 ;;      Params:         0       0       0       0       0
   782 ;;      Locals:         0       0       4       0       0
   783 ;;      Temps:          0       0       2       0       0
   784 ;;      Totals:         0       0       6       0       0
   785 ;;Total ram usage:        6 bytes
   786 ;; Hardware stack levels required when called: 3
   787 ;; This function calls:
   788 ;;		_ADC_Init
   789 ;;		_Read_ADC
   790 ;;		_Scale_Display
   791 ;;		_Send_LED_Data
   792 ;;		_Split_Display
   793 ;; This function is called by:
   794 ;;		Startup code after reset
   795 ;; This function uses a non-reentrant model
   796 ;;
   797                           
   798     0D63                     _main:	
   799                           ;psect for function _main
   800                           
   801     0D63                     l2035:	
   802                           ;incstack = 0
   803                           ; Regs used in _main: [wreg-fsr0h+status,2+status,0+btemp+1+pclath+cstack]
   804                           
   805                           
   806                           ;../flowmeter5_main.c: 56:     TRISCbits.TRISC0 = 0;
   807     0D63  1683               	bsf	3,5	;RP0=1, select bank1
   808     0D64  1303               	bcf	3,6	;RP1=0, select bank1
   809     0D65  1007               	bcf	7,0	;volatile
   810                           
   811                           ;../flowmeter5_main.c: 57:     TRISA0 = 1;
   812     0D66  1405               	bsf	5,0	;volatile
   813                           
   814                           ;../flowmeter5_main.c: 58:     TRISC0 = 0;
   815     0D67  1007               	bcf	7,0	;volatile
   816                           
   817                           ;../flowmeter5_main.c: 59:     TRISC3 = 0;
   818     0D68  1187               	bcf	7,3	;volatile
   819                           
   820                           ;../flowmeter5_main.c: 60:     TRISC5 = 0;
   821     0D69  1287               	bcf	7,5	;volatile
   822                           
   823                           ;../flowmeter5_main.c: 61:     TRISB0 = 1;
   824     0D6A  1406               	bsf	6,0	;volatile
   825                           
   826                           ;../flowmeter5_main.c: 62:     TRISB1 = 1;
   827     0D6B  1486               	bsf	6,1	;volatile
   828                           
   829                           ;../flowmeter5_main.c: 64:     PORTCbits.RC0 = 0;
   830     0D6C  1283               	bcf	3,5	;RP0=0, select bank0
   831     0D6D  1303               	bcf	3,6	;RP1=0, select bank0
   832     0D6E  1007               	bcf	7,0	;volatile
   833                           
   834                           ;../flowmeter5_main.c: 67:     SSPSTAT = 0x40;
   835     0D6F  3040               	movlw	64
   836     0D70  1683               	bsf	3,5	;RP0=1, select bank1
   837     0D71  1303               	bcf	3,6	;RP1=0, select bank1
   838     0D72  0094               	movwf	20	;volatile
   839                           
   840                           ;../flowmeter5_main.c: 68:     SSPCON = 0x20;
   841     0D73  3020               	movlw	32
   842     0D74  1283               	bcf	3,5	;RP0=0, select bank0
   843     0D75  1303               	bcf	3,6	;RP1=0, select bank0
   844     0D76  0094               	movwf	20	;volatile
   845     0D77                     l2037:
   846                           
   847                           ;../flowmeter5_main.c: 71:     ADC_Init();
   848     0D77  120A  158A  23A6  120A  158A  	fcall	_ADC_Init
   849     0D7C                     l2039:
   850                           
   851                           ;../flowmeter5_main.c: 73:     mode = 0;
   852     0D7C  1683               	bsf	3,5	;RP0=1, select bank1
   853     0D7D  1303               	bcf	3,6	;RP1=0, select bank1
   854     0D7E  01E3               	clrf	_mode^(0+128)
   855     0D7F                     l2041:
   856                           
   857                           ;../flowmeter5_main.c: 74:     flash_on = 0;
   858     0D7F  01E2               	clrf	_flash_on^(0+128)
   859     0D80                     l2043:
   860                           
   861                           ;../flowmeter5_main.c: 75:     flash_timer = 0;
   862     0D80  01DB               	clrf	_flash_timer^(0+128)
   863     0D81  01DC               	clrf	(_flash_timer+1)^(0+128)
   864     0D82                     l2045:
   865                           
   866                           ;../flowmeter5_main.c: 78:         adc_val = Read_ADC();
   867     0D82  120A  158A  23AE  120A  158A  	fcall	_Read_ADC
   868     0D87  0871               	movf	?_Read_ADC+1,w
   869     0D88  1683               	bsf	3,5	;RP0=1, select bank1
   870     0D89  1303               	bcf	3,6	;RP1=0, select bank1
   871     0D8A  00ED               	movwf	(_adc_val+1)^(0+128)
   872     0D8B  0870               	movf	?_Read_ADC,w
   873     0D8C  00EC               	movwf	_adc_val^(0+128)
   874     0D8D                     l2047:
   875                           
   876                           ;../flowmeter5_main.c: 79:         display_val = Scale_Display(adc_val, mode);
   877     0D8D  086D               	movf	(_adc_val+1)^(0+128),w
   878     0D8E  00A3               	movwf	(Scale_Display@adc_val+1)^(0+128)
   879     0D8F  086C               	movf	_adc_val^(0+128),w
   880     0D90  00A2               	movwf	Scale_Display@adc_val^(0+128)
   881     0D91  0863               	movf	_mode^(0+128),w
   882     0D92  00A4               	movwf	Scale_Display@mode^(0+128)
   883     0D93  120A  158A  26BE  120A  158A  	fcall	_Scale_Display
   884     0D98  1683               	bsf	3,5	;RP0=1, select bank1
   885     0D99  1303               	bcf	3,6	;RP1=0, select bank1
   886     0D9A  0823               	movf	(?_Scale_Display+1)^(0+128),w
   887     0D9B  00EB               	movwf	(_display_val+1)^(0+128)
   888     0D9C  0822               	movf	?_Scale_Display^(0+128),w
   889     0D9D  00EA               	movwf	_display_val^(0+128)
   890     0D9E                     l2049:
   891                           
   892                           ;../flowmeter5_main.c: 82:         if (adc_val >= 920) {
   893     0D9E  3003               	movlw	3
   894     0D9F  026D               	subwf	(_adc_val+1)^(0+128),w
   895     0DA0  3098               	movlw	152
   896     0DA1  1903               	skipnz
   897     0DA2  026C               	subwf	_adc_val^(0+128),w
   898     0DA3  1C03               	skipc
   899     0DA4  2DA6               	goto	u3231
   900     0DA5  2DA7               	goto	u3230
   901     0DA6                     u3231:
   902     0DA6  2DAA               	goto	l2053
   903     0DA7                     u3230:
   904     0DA7                     l2051:
   905                           
   906                           ;../flowmeter5_main.c: 83:             flash_on = 1;
   907     0DA7  3001               	movlw	1
   908     0DA8  00E2               	movwf	_flash_on^(0+128)
   909                           
   910                           ;../flowmeter5_main.c: 84:         } else {
   911     0DA9  2DAB               	goto	l2055
   912     0DAA                     l2053:
   913                           
   914                           ;../flowmeter5_main.c: 85:             flash_on = 0;
   915     0DAA  01E2               	clrf	_flash_on^(0+128)
   916     0DAB                     l2055:
   917                           
   918                           ;../flowmeter5_main.c: 89:         if (flash_on) {
   919     0DAB  0862               	movf	_flash_on^(0+128),w
   920     0DAC  1903               	btfsc	3,2
   921     0DAD  2DAF               	goto	u3241
   922     0DAE  2DB0               	goto	u3240
   923     0DAF                     u3241:
   924     0DAF  2DCE               	goto	l2065
   925     0DB0                     u3240:
   926     0DB0                     l2057:
   927                           
   928                           ;../flowmeter5_main.c: 90:             flash_timer++;
   929     0DB0  3001               	movlw	1
   930     0DB1  07DB               	addwf	_flash_timer^(0+128),f
   931     0DB2  1803               	skipnc
   932     0DB3  0ADC               	incf	(_flash_timer+1)^(0+128),f
   933     0DB4  3000               	movlw	0
   934     0DB5  07DC               	addwf	(_flash_timer+1)^(0+128),f
   935                           
   936                           ;../flowmeter5_main.c: 91:             if (flash_timer >= 25) {
   937     0DB6  3000               	movlw	0
   938     0DB7  025C               	subwf	(_flash_timer+1)^(0+128),w
   939     0DB8  3019               	movlw	25
   940     0DB9  1903               	skipnz
   941     0DBA  025B               	subwf	_flash_timer^(0+128),w
   942     0DBB  1C03               	skipc
   943     0DBC  2DBE               	goto	u3251
   944     0DBD  2DBF               	goto	u3250
   945     0DBE                     u3251:
   946     0DBE  2DFC               	goto	l2077
   947     0DBF                     u3250:
   948     0DBF                     l2059:
   949                           
   950                           ;../flowmeter5_main.c: 92:                 flash_timer = 0;
   951     0DBF  01DB               	clrf	_flash_timer^(0+128)
   952     0DC0  01DC               	clrf	(_flash_timer+1)^(0+128)
   953     0DC1                     l2061:
   954                           
   955                           ;../flowmeter5_main.c: 93:                 static unsigned char flash_state = 0;;../flow
      +                          meter5_main.c: 94:                 flash_state = !flash_state;
   956     0DC1  0861               	movf	main@flash_state^(0+128),w
   957     0DC2  1903               	btfsc	3,2
   958     0DC3  2DC5               	goto	u3261
   959     0DC4  2DC7               	goto	u3260
   960     0DC5                     u3261:
   961     0DC5  3001               	movlw	1
   962     0DC6  2DC8               	goto	u3270
   963     0DC7                     u3260:
   964     0DC7  3000               	movlw	0
   965     0DC8                     u3270:
   966     0DC8  00E1               	movwf	main@flash_state^(0+128)
   967     0DC9                     l2063:
   968                           
   969                           ;../flowmeter5_main.c: 95:                 if (flash_state) {
   970     0DC9  0861               	movf	main@flash_state^(0+128),w
   971     0DCA  1903               	btfsc	3,2
   972     0DCB  2DCD               	goto	u3281
   973     0DCC  2DCE               	goto	u3280
   974     0DCD                     u3281:
   975     0DCD  2DEB               	goto	l2069
   976     0DCE                     u3280:
   977     0DCE                     l2065:
   978                           
   979                           ;../flowmeter5_main.c: 96:                     Split_Display(display_val, digit_val);
   980     0DCE  086B               	movf	(_display_val+1)^(0+128),w
   981     0DCF  1283               	bcf	3,5	;RP0=0, select bank0
   982     0DD0  1303               	bcf	3,6	;RP1=0, select bank0
   983     0DD1  00A1               	movwf	Split_Display@display+1
   984     0DD2  1683               	bsf	3,5	;RP0=1, select bank1
   985     0DD3  1303               	bcf	3,6	;RP1=0, select bank1
   986     0DD4  086A               	movf	_display_val^(0+128),w
   987     0DD5  1283               	bcf	3,5	;RP0=0, select bank0
   988     0DD6  1303               	bcf	3,6	;RP1=0, select bank0
   989     0DD7  00A0               	movwf	Split_Display@display
   990     0DD8  30E6               	movlw	(low (_digit_val| 0))& (0+255)
   991     0DD9  00A2               	movwf	Split_Display@digits
   992     0DDA  120A  118A  200E  120A  158A  	fcall	_Split_Display
   993     0DDF                     l2067:
   994                           
   995                           ;../flowmeter5_main.c: 97:                     Send_LED_Data(digit_val, mode);
   996     0DDF  30E6               	movlw	(low (_digit_val| 0))& (0+255)
   997     0DE0  00F0               	movwf	Send_LED_Data@digits
   998     0DE1  1683               	bsf	3,5	;RP0=1, select bank1
   999     0DE2  1303               	bcf	3,6	;RP1=0, select bank1
  1000     0DE3  0863               	movf	_mode^(0+128),w
  1001     0DE4  00F1               	movwf	Send_LED_Data@mode
  1002     0DE5  120A  158A  2453  120A  158A  	fcall	_Send_LED_Data
  1003                           
  1004                           ;../flowmeter5_main.c: 98:                 } else {
  1005     0DEA  2DFC               	goto	l2077
  1006     0DEB                     l2069:
  1007                           
  1008                           ;../flowmeter5_main.c: 99:                     unsigned char blank[4] = {0, 0, 0, 0};
  1009     0DEB  3000               	movlw	0
  1010     0DEC  00D6               	movwf	(main@blank+3)^(0+128)
  1011     0DED  3000               	movlw	0
  1012     0DEE  00D5               	movwf	(main@blank+2)^(0+128)
  1013     0DEF  3000               	movlw	0
  1014     0DF0  00D4               	movwf	(main@blank+1)^(0+128)
  1015     0DF1  3000               	movlw	0
  1016     0DF2  00D3               	movwf	main@blank^(0+128)
  1017     0DF3                     l2071:
  1018                           
  1019                           ;../flowmeter5_main.c: 100:                     Send_LED_Data(blank, mode);
  1020     0DF3  30D3               	movlw	(low (main@blank| 0))& (0+255)
  1021     0DF4  00F0               	movwf	Send_LED_Data@digits
  1022     0DF5  0863               	movf	_mode^(0+128),w
  1023     0DF6  00F1               	movwf	Send_LED_Data@mode
  1024     0DF7  120A  158A  2453  120A  158A  	fcall	_Send_LED_Data
  1025     0DFC                     l2077:
  1026                           
  1027                           ;../flowmeter5_main.c: 109:         _delay((unsigned long)((20)*(8000000/4000.0)));
  1028     0DFC  3034               	movlw	52
  1029     0DFD  1683               	bsf	3,5	;RP0=1, select bank1
  1030     0DFE  1303               	bcf	3,6	;RP1=0, select bank1
  1031     0DFF  00D2               	movwf	(??_main^(0+128)+1)
  1032     0E00  30F1               	movlw	241
  1033     0E01  00D1               	movwf	??_main^(0+128)
  1034     0E02                     u3297:
  1035     0E02  0BD1               	decfsz	??_main^(0+128),f
  1036     0E03  2E02               	goto	u3297
  1037     0E04  0BD2               	decfsz	(??_main^(0+128)+1),f
  1038     0E05  2E02               	goto	u3297
  1039     0E06  2D82               	goto	l2045
  1040     0E07  120A  118A  2800   	ljmp	start
  1041     0E0A                     __end_of_main:
  1042                           
  1043                           	psect	text1
  1044     000E                     __ptext1:	
  1045 ;; *************** function _Split_Display *****************
  1046 ;; Defined at:
  1047 ;;		line 24 in file "../flowmeter5_main.c"
  1048 ;; Parameters:    Size  Location     Type
  1049 ;;  display         2    0[BANK0 ] unsigned int 
  1050 ;;  digits          1    2[BANK0 ] PTR unsigned char 
  1051 ;;		 -> digit_val(4), 
  1052 ;; Auto vars:     Size  Location     Type
  1053 ;;		None
  1054 ;; Return value:  Size  Location     Type
  1055 ;;                  1    wreg      void 
  1056 ;; Registers used:
  1057 ;;		wreg, fsr0l, fsr0h, status,2, status,0, pclath, cstack
  1058 ;; Tracked objects:
  1059 ;;		On entry : 0/0
  1060 ;;		On exit  : 0/0
  1061 ;;		Unchanged: 0/0
  1062 ;; Data sizes:     COMMON   BANK0   BANK1   BANK3   BANK2
  1063 ;;      Params:         0       3       0       0       0
  1064 ;;      Locals:         0       0       0       0       0
  1065 ;;      Temps:          0       0       0       0       0
  1066 ;;      Totals:         0       3       0       0       0
  1067 ;;Total ram usage:        3 bytes
  1068 ;; Hardware stack levels used: 1
  1069 ;; Hardware stack levels required when called: 1
  1070 ;; This function calls:
  1071 ;;		___lwdiv
  1072 ;;		___lwmod
  1073 ;; This function is called by:
  1074 ;;		_main
  1075 ;; This function uses a non-reentrant model
  1076 ;;
  1077                           
  1078     000E                     _Split_Display:	
  1079                           ;psect for function _Split_Display
  1080                           
  1081     000E                     l2009:	
  1082                           ;incstack = 0
  1083                           ; Regs used in _Split_Display: [wreg-fsr0h+status,2+status,0+pclath+cstack]
  1084                           
  1085                           
  1086                           ;../flowmeter5_main.c: 25:     digits[0] = display / 1000;
  1087     000E  1283               	bcf	3,5	;RP0=0, select bank0
  1088     000F  1303               	bcf	3,6	;RP1=0, select bank0
  1089     0010  0822               	movf	Split_Display@digits,w
  1090     0011  0084               	movwf	4
  1091     0012  30E8               	movlw	232
  1092     0013  00F0               	movwf	___lwdiv@divisor
  1093     0014  3003               	movlw	3
  1094     0015  00F1               	movwf	___lwdiv@divisor+1
  1095     0016  0821               	movf	Split_Display@display+1,w
  1096     0017  00F3               	movwf	___lwdiv@dividend+1
  1097     0018  0820               	movf	Split_Display@display,w
  1098     0019  00F2               	movwf	___lwdiv@dividend
  1099     001A  120A  158A  2495  120A  118A  	fcall	___lwdiv
  1100     001F  0870               	movf	?___lwdiv,w
  1101     0020  1383               	bcf	3,7	;select IRP bank0
  1102     0021  0080               	movwf	0
  1103                           
  1104                           ;../flowmeter5_main.c: 26:     digits[1] = (display / 100) % 10;
  1105     0022  1283               	bcf	3,5	;RP0=0, select bank0
  1106     0023  1303               	bcf	3,6	;RP1=0, select bank0
  1107     0024  0A22               	incf	Split_Display@digits,w
  1108     0025  0084               	movwf	4
  1109     0026  300A               	movlw	10
  1110     0027  00F7               	movwf	___lwmod@divisor
  1111     0028  3000               	movlw	0
  1112     0029  00F8               	movwf	___lwmod@divisor+1
  1113     002A  3064               	movlw	100
  1114     002B  00F0               	movwf	___lwdiv@divisor
  1115     002C  3000               	movlw	0
  1116     002D  00F1               	movwf	___lwdiv@divisor+1
  1117     002E  0821               	movf	Split_Display@display+1,w
  1118     002F  00F3               	movwf	___lwdiv@dividend+1
  1119     0030  0820               	movf	Split_Display@display,w
  1120     0031  00F2               	movwf	___lwdiv@dividend
  1121     0032  120A  158A  2495  120A  118A  	fcall	___lwdiv
  1122     0037  0871               	movf	?___lwdiv+1,w
  1123     0038  00FA               	movwf	___lwmod@dividend+1
  1124     0039  0870               	movf	?___lwdiv,w
  1125     003A  00F9               	movwf	___lwmod@dividend
  1126     003B  120A  158A  241B  120A  118A  	fcall	___lwmod
  1127     0040  0877               	movf	?___lwmod,w
  1128     0041  1383               	bcf	3,7	;select IRP bank0
  1129     0042  0080               	movwf	0
  1130                           
  1131                           ;../flowmeter5_main.c: 27:     digits[2] = (display / 10) % 10;
  1132     0043  1283               	bcf	3,5	;RP0=0, select bank0
  1133     0044  1303               	bcf	3,6	;RP1=0, select bank0
  1134     0045  0822               	movf	Split_Display@digits,w
  1135     0046  3E02               	addlw	2
  1136     0047  0084               	movwf	4
  1137     0048  300A               	movlw	10
  1138     0049  00F7               	movwf	___lwmod@divisor
  1139     004A  3000               	movlw	0
  1140     004B  00F8               	movwf	___lwmod@divisor+1
  1141     004C  300A               	movlw	10
  1142     004D  00F0               	movwf	___lwdiv@divisor
  1143     004E  3000               	movlw	0
  1144     004F  00F1               	movwf	___lwdiv@divisor+1
  1145     0050  0821               	movf	Split_Display@display+1,w
  1146     0051  00F3               	movwf	___lwdiv@dividend+1
  1147     0052  0820               	movf	Split_Display@display,w
  1148     0053  00F2               	movwf	___lwdiv@dividend
  1149     0054  120A  158A  2495  120A  118A  	fcall	___lwdiv
  1150     0059  0871               	movf	?___lwdiv+1,w
  1151     005A  00FA               	movwf	___lwmod@dividend+1
  1152     005B  0870               	movf	?___lwdiv,w
  1153     005C  00F9               	movwf	___lwmod@dividend
  1154     005D  120A  158A  241B  120A  118A  	fcall	___lwmod
  1155     0062  0877               	movf	?___lwmod,w
  1156     0063  1383               	bcf	3,7	;select IRP bank0
  1157     0064  0080               	movwf	0
  1158                           
  1159                           ;../flowmeter5_main.c: 28:     digits[3] = display % 10;
  1160     0065  1283               	bcf	3,5	;RP0=0, select bank0
  1161     0066  1303               	bcf	3,6	;RP1=0, select bank0
  1162     0067  0822               	movf	Split_Display@digits,w
  1163     0068  3E03               	addlw	3
  1164     0069  0084               	movwf	4
  1165     006A  300A               	movlw	10
  1166     006B  00F7               	movwf	___lwmod@divisor
  1167     006C  3000               	movlw	0
  1168     006D  00F8               	movwf	___lwmod@divisor+1
  1169     006E  0821               	movf	Split_Display@display+1,w
  1170     006F  00FA               	movwf	___lwmod@dividend+1
  1171     0070  0820               	movf	Split_Display@display,w
  1172     0071  00F9               	movwf	___lwmod@dividend
  1173     0072  120A  158A  241B  120A  118A  	fcall	___lwmod
  1174     0077  0877               	movf	?___lwmod,w
  1175     0078  1383               	bcf	3,7	;select IRP bank0
  1176     0079  0080               	movwf	0
  1177     007A                     l88:
  1178     007A  0008               	return
  1179     007B                     __end_of_Split_Display:
  1180                           
  1181                           	psect	text2
  1182     0C1B                     __ptext2:	
  1183 ;; *************** function ___lwmod *****************
  1184 ;; Defined at:
  1185 ;;		line 5 in file "C:\Program Files\Microchip\xc8\v3.00\pic\sources\c99\common\lwmod.c"
  1186 ;; Parameters:    Size  Location     Type
  1187 ;;  divisor         2    7[COMMON] unsigned int 
  1188 ;;  dividend        2    9[COMMON] unsigned int 
  1189 ;; Auto vars:     Size  Location     Type
  1190 ;;  counter         1   11[COMMON] unsigned char 
  1191 ;; Return value:  Size  Location     Type
  1192 ;;                  2    7[COMMON] unsigned int 
  1193 ;; Registers used:
  1194 ;;		wreg, status,2, status,0
  1195 ;; Tracked objects:
  1196 ;;		On entry : 0/0
  1197 ;;		On exit  : 0/0
  1198 ;;		Unchanged: 0/0
  1199 ;; Data sizes:     COMMON   BANK0   BANK1   BANK3   BANK2
  1200 ;;      Params:         4       0       0       0       0
  1201 ;;      Locals:         1       0       0       0       0
  1202 ;;      Temps:          0       0       0       0       0
  1203 ;;      Totals:         5       0       0       0       0
  1204 ;;Total ram usage:        5 bytes
  1205 ;; Hardware stack levels used: 1
  1206 ;; This function calls:
  1207 ;;		Nothing
  1208 ;; This function is called by:
  1209 ;;		_Split_Display
  1210 ;; This function uses a non-reentrant model
  1211 ;;
  1212                           
  1213     0C1B                     ___lwmod:	
  1214                           ;psect for function ___lwmod
  1215                           
  1216     0C1B                     l1449:	
  1217                           ;incstack = 0
  1218                           ; Regs used in ___lwmod: [wreg+status,2+status,0]
  1219                           
  1220     0C1B  0877               	movf	___lwmod@divisor,w
  1221     0C1C  0478               	iorwf	___lwmod@divisor+1,w
  1222     0C1D  1903               	btfsc	3,2
  1223     0C1E  2C20               	goto	u1851
  1224     0C1F  2C21               	goto	u1850
  1225     0C20                     u1851:
  1226     0C20  2C4E               	goto	l1467
  1227     0C21                     u1850:
  1228     0C21                     l1451:
  1229     0C21  3001               	movlw	1
  1230     0C22  00FB               	movwf	___lwmod@counter
  1231     0C23  2C2D               	goto	l1457
  1232     0C24                     l1453:
  1233     0C24  3001               	movlw	1
  1234     0C25                     u1865:
  1235     0C25  1003               	clrc
  1236     0C26  0DF7               	rlf	___lwmod@divisor,f
  1237     0C27  0DF8               	rlf	___lwmod@divisor+1,f
  1238     0C28  3EFF               	addlw	-1
  1239     0C29  1D03               	skipz
  1240     0C2A  2C25               	goto	u1865
  1241     0C2B                     l1455:
  1242     0C2B  3001               	movlw	1
  1243     0C2C  07FB               	addwf	___lwmod@counter,f
  1244     0C2D                     l1457:
  1245     0C2D  1FF8               	btfss	___lwmod@divisor+1,7
  1246     0C2E  2C30               	goto	u1871
  1247     0C2F  2C31               	goto	u1870
  1248     0C30                     u1871:
  1249     0C30  2C24               	goto	l1453
  1250     0C31                     u1870:
  1251     0C31                     l1459:
  1252     0C31  0878               	movf	___lwmod@divisor+1,w
  1253     0C32  027A               	subwf	___lwmod@dividend+1,w
  1254     0C33  1D03               	skipz
  1255     0C34  2C37               	goto	u1885
  1256     0C35  0877               	movf	___lwmod@divisor,w
  1257     0C36  0279               	subwf	___lwmod@dividend,w
  1258     0C37                     u1885:
  1259     0C37  1C03               	skipc
  1260     0C38  2C3A               	goto	u1881
  1261     0C39  2C3B               	goto	u1880
  1262     0C3A                     u1881:
  1263     0C3A  2C41               	goto	l1463
  1264     0C3B                     u1880:
  1265     0C3B                     l1461:
  1266     0C3B  0877               	movf	___lwmod@divisor,w
  1267     0C3C  02F9               	subwf	___lwmod@dividend,f
  1268     0C3D  0878               	movf	___lwmod@divisor+1,w
  1269     0C3E  1C03               	skipc
  1270     0C3F  03FA               	decf	___lwmod@dividend+1,f
  1271     0C40  02FA               	subwf	___lwmod@dividend+1,f
  1272     0C41                     l1463:
  1273     0C41  3001               	movlw	1
  1274     0C42                     u1895:
  1275     0C42  1003               	clrc
  1276     0C43  0CF8               	rrf	___lwmod@divisor+1,f
  1277     0C44  0CF7               	rrf	___lwmod@divisor,f
  1278     0C45  3EFF               	addlw	-1
  1279     0C46  1D03               	skipz
  1280     0C47  2C42               	goto	u1895
  1281     0C48                     l1465:
  1282     0C48  3001               	movlw	1
  1283     0C49  02FB               	subwf	___lwmod@counter,f
  1284     0C4A  1D03               	btfss	3,2
  1285     0C4B  2C4D               	goto	u1901
  1286     0C4C  2C4E               	goto	u1900
  1287     0C4D                     u1901:
  1288     0C4D  2C31               	goto	l1459
  1289     0C4E                     u1900:
  1290     0C4E                     l1467:
  1291     0C4E  087A               	movf	___lwmod@dividend+1,w
  1292     0C4F  00F8               	movwf	?___lwmod+1
  1293     0C50  0879               	movf	___lwmod@dividend,w
  1294     0C51  00F7               	movwf	?___lwmod
  1295     0C52                     l499:
  1296     0C52  0008               	return
  1297     0C53                     __end_of___lwmod:
  1298                           
  1299                           	psect	text3
  1300     0C95                     __ptext3:	
  1301 ;; *************** function ___lwdiv *****************
  1302 ;; Defined at:
  1303 ;;		line 5 in file "C:\Program Files\Microchip\xc8\v3.00\pic\sources\c99\common\lwdiv.c"
  1304 ;; Parameters:    Size  Location     Type
  1305 ;;  divisor         2    0[COMMON] unsigned int 
  1306 ;;  dividend        2    2[COMMON] unsigned int 
  1307 ;; Auto vars:     Size  Location     Type
  1308 ;;  quotient        2    4[COMMON] unsigned int 
  1309 ;;  counter         1    6[COMMON] unsigned char 
  1310 ;; Return value:  Size  Location     Type
  1311 ;;                  2    0[COMMON] unsigned int 
  1312 ;; Registers used:
  1313 ;;		wreg, status,2, status,0
  1314 ;; Tracked objects:
  1315 ;;		On entry : 0/0
  1316 ;;		On exit  : 0/0
  1317 ;;		Unchanged: 0/0
  1318 ;; Data sizes:     COMMON   BANK0   BANK1   BANK3   BANK2
  1319 ;;      Params:         4       0       0       0       0
  1320 ;;      Locals:         3       0       0       0       0
  1321 ;;      Temps:          0       0       0       0       0
  1322 ;;      Totals:         7       0       0       0       0
  1323 ;;Total ram usage:        7 bytes
  1324 ;; Hardware stack levels used: 1
  1325 ;; This function calls:
  1326 ;;		Nothing
  1327 ;; This function is called by:
  1328 ;;		_Split_Display
  1329 ;; This function uses a non-reentrant model
  1330 ;;
  1331                           
  1332     0C95                     ___lwdiv:	
  1333                           ;psect for function ___lwdiv
  1334                           
  1335     0C95                     l1423:	
  1336                           ;incstack = 0
  1337                           ; Regs used in ___lwdiv: [wreg+status,2+status,0]
  1338                           
  1339     0C95  01F4               	clrf	___lwdiv@quotient
  1340     0C96  01F5               	clrf	___lwdiv@quotient+1
  1341     0C97                     l1425:
  1342     0C97  0870               	movf	___lwdiv@divisor,w
  1343     0C98  0471               	iorwf	___lwdiv@divisor+1,w
  1344     0C99  1903               	btfsc	3,2
  1345     0C9A  2C9C               	goto	u1781
  1346     0C9B  2C9D               	goto	u1780
  1347     0C9C                     u1781:
  1348     0C9C  2CD2               	goto	l1445
  1349     0C9D                     u1780:
  1350     0C9D                     l1427:
  1351     0C9D  3001               	movlw	1
  1352     0C9E  00F6               	movwf	___lwdiv@counter
  1353     0C9F  2CA9               	goto	l1433
  1354     0CA0                     l1429:
  1355     0CA0  3001               	movlw	1
  1356     0CA1                     u1795:
  1357     0CA1  1003               	clrc
  1358     0CA2  0DF0               	rlf	___lwdiv@divisor,f
  1359     0CA3  0DF1               	rlf	___lwdiv@divisor+1,f
  1360     0CA4  3EFF               	addlw	-1
  1361     0CA5  1D03               	skipz
  1362     0CA6  2CA1               	goto	u1795
  1363     0CA7                     l1431:
  1364     0CA7  3001               	movlw	1
  1365     0CA8  07F6               	addwf	___lwdiv@counter,f
  1366     0CA9                     l1433:
  1367     0CA9  1FF1               	btfss	___lwdiv@divisor+1,7
  1368     0CAA  2CAC               	goto	u1801
  1369     0CAB  2CAD               	goto	u1800
  1370     0CAC                     u1801:
  1371     0CAC  2CA0               	goto	l1429
  1372     0CAD                     u1800:
  1373     0CAD                     l1435:
  1374     0CAD  3001               	movlw	1
  1375     0CAE                     u1815:
  1376     0CAE  1003               	clrc
  1377     0CAF  0DF4               	rlf	___lwdiv@quotient,f
  1378     0CB0  0DF5               	rlf	___lwdiv@quotient+1,f
  1379     0CB1  3EFF               	addlw	-1
  1380     0CB2  1D03               	skipz
  1381     0CB3  2CAE               	goto	u1815
  1382     0CB4  0871               	movf	___lwdiv@divisor+1,w
  1383     0CB5  0273               	subwf	___lwdiv@dividend+1,w
  1384     0CB6  1D03               	skipz
  1385     0CB7  2CBA               	goto	u1825
  1386     0CB8  0870               	movf	___lwdiv@divisor,w
  1387     0CB9  0272               	subwf	___lwdiv@dividend,w
  1388     0CBA                     u1825:
  1389     0CBA  1C03               	skipc
  1390     0CBB  2CBD               	goto	u1821
  1391     0CBC  2CBE               	goto	u1820
  1392     0CBD                     u1821:
  1393     0CBD  2CC5               	goto	l1441
  1394     0CBE                     u1820:
  1395     0CBE                     l1437:
  1396     0CBE  0870               	movf	___lwdiv@divisor,w
  1397     0CBF  02F2               	subwf	___lwdiv@dividend,f
  1398     0CC0  0871               	movf	___lwdiv@divisor+1,w
  1399     0CC1  1C03               	skipc
  1400     0CC2  03F3               	decf	___lwdiv@dividend+1,f
  1401     0CC3  02F3               	subwf	___lwdiv@dividend+1,f
  1402     0CC4                     l1439:
  1403     0CC4  1474               	bsf	___lwdiv@quotient,0
  1404     0CC5                     l1441:
  1405     0CC5  3001               	movlw	1
  1406     0CC6                     u1835:
  1407     0CC6  1003               	clrc
  1408     0CC7  0CF1               	rrf	___lwdiv@divisor+1,f
  1409     0CC8  0CF0               	rrf	___lwdiv@divisor,f
  1410     0CC9  3EFF               	addlw	-1
  1411     0CCA  1D03               	skipz
  1412     0CCB  2CC6               	goto	u1835
  1413     0CCC                     l1443:
  1414     0CCC  3001               	movlw	1
  1415     0CCD  02F6               	subwf	___lwdiv@counter,f
  1416     0CCE  1D03               	btfss	3,2
  1417     0CCF  2CD1               	goto	u1841
  1418     0CD0  2CD2               	goto	u1840
  1419     0CD1                     u1841:
  1420     0CD1  2CAD               	goto	l1435
  1421     0CD2                     u1840:
  1422     0CD2                     l1445:
  1423     0CD2  0875               	movf	___lwdiv@quotient+1,w
  1424     0CD3  00F1               	movwf	?___lwdiv+1
  1425     0CD4  0874               	movf	___lwdiv@quotient,w
  1426     0CD5  00F0               	movwf	?___lwdiv
  1427     0CD6                     l489:
  1428     0CD6  0008               	return
  1429     0CD7                     __end_of___lwdiv:
  1430                           
  1431                           	psect	text4
  1432     0C53                     __ptext4:	
  1433 ;; *************** function _Send_LED_Data *****************
  1434 ;; Defined at:
  1435 ;;		line 32 in file "../flowmeter5_main.c"
  1436 ;; Parameters:    Size  Location     Type
  1437 ;;  digits          1    0[COMMON] PTR unsigned char 
  1438 ;;		 -> main@blank(4), digit_val(4), 
  1439 ;;  mode            1    1[COMMON] unsigned char 
  1440 ;; Auto vars:     Size  Location     Type
  1441 ;;  i               2    3[COMMON] int 
  1442 ;; Return value:  Size  Location     Type
  1443 ;;                  1    wreg      void 
  1444 ;; Registers used:
  1445 ;;		wreg, fsr0l, fsr0h, status,2, status,0, btemp+1, pclath
  1446 ;; Tracked objects:
  1447 ;;		On entry : 0/0
  1448 ;;		On exit  : 0/0
  1449 ;;		Unchanged: 0/0
  1450 ;; Data sizes:     COMMON   BANK0   BANK1   BANK3   BANK2
  1451 ;;      Params:         2       0       0       0       0
  1452 ;;      Locals:         2       0       0       0       0
  1453 ;;      Temps:          1       0       0       0       0
  1454 ;;      Totals:         5       0       0       0       0
  1455 ;;Total ram usage:        5 bytes
  1456 ;; Hardware stack levels used: 2
  1457 ;; This function calls:
  1458 ;;		Nothing
  1459 ;; This function is called by:
  1460 ;;		_main
  1461 ;; This function uses a non-reentrant model
  1462 ;;
  1463                           
  1464     0C53                     _Send_LED_Data:	
  1465                           ;psect for function _Send_LED_Data
  1466                           
  1467     0C53                     l2011:	
  1468                           ;incstack = 0
  1469                           ; Regs used in _Send_LED_Data: [wreg-fsr0h+status,2+status,0+btemp+1+pclath]
  1470                           
  1471                           
  1472                           ;../flowmeter5_main.c: 33:     for (int i = 0; i < 4; i++) {
  1473     0C53  01F3               	clrf	Send_LED_Data@i
  1474     0C54  01F4               	clrf	Send_LED_Data@i+1
  1475     0C55                     l2017:
  1476                           
  1477                           ;../flowmeter5_main.c: 34:         SSPBUF = LED_FONT_TABLE[digits[i]];
  1478     0C55  0873               	movf	Send_LED_Data@i,w
  1479     0C56  0770               	addwf	Send_LED_Data@digits,w
  1480     0C57  00F2               	movwf	??_Send_LED_Data
  1481     0C58  0872               	movf	??_Send_LED_Data,w
  1482     0C59  0084               	movwf	4
  1483     0C5A  1383               	bcf	3,7	;select IRP bank0
  1484     0C5B  0800               	movf	0,w
  1485     0C5C  3E01               	addlw	low ((_LED_FONT_TABLE-__stringbase)| (0+32768))
  1486     0C5D  0084               	movwf	4
  1487     0C5E  120A  158A  2000  120A  158A  	fcall	stringdir
  1488     0C63  1283               	bcf	3,5	;RP0=0, select bank0
  1489     0C64  1303               	bcf	3,6	;RP1=0, select bank0
  1490     0C65  0093               	movwf	19	;volatile
  1491     0C66                     l93:	
  1492                           ;../flowmeter5_main.c: 35:         while (!SSPSTATbits.BF);
  1493                           
  1494     0C66  1683               	bsf	3,5	;RP0=1, select bank1
  1495     0C67  1303               	bcf	3,6	;RP1=0, select bank1
  1496     0C68  1C14               	btfss	20,0	;volatile
  1497     0C69  2C6B               	goto	u3181
  1498     0C6A  2C6C               	goto	u3180
  1499     0C6B                     u3181:
  1500     0C6B  2C66               	goto	l93
  1501     0C6C                     u3180:
  1502     0C6C                     l2019:
  1503                           
  1504                           ;../flowmeter5_main.c: 36:     }
  1505     0C6C  3001               	movlw	1
  1506     0C6D  07F3               	addwf	Send_LED_Data@i,f
  1507     0C6E  1803               	skipnc
  1508     0C6F  0AF4               	incf	Send_LED_Data@i+1,f
  1509     0C70  3000               	movlw	0
  1510     0C71  07F4               	addwf	Send_LED_Data@i+1,f
  1511     0C72                     l2021:
  1512     0C72  0874               	movf	Send_LED_Data@i+1,w
  1513     0C73  3A80               	xorlw	128
  1514     0C74  00FF               	movwf	btemp+1
  1515     0C75  3080               	movlw	128
  1516     0C76  027F               	subwf	btemp+1,w
  1517     0C77  1D03               	skipz
  1518     0C78  2C7B               	goto	u3195
  1519     0C79  3004               	movlw	4
  1520     0C7A  0273               	subwf	Send_LED_Data@i,w
  1521     0C7B                     u3195:
  1522     0C7B  1C03               	skipc
  1523     0C7C  2C7E               	goto	u3191
  1524     0C7D  2C7F               	goto	u3190
  1525     0C7E                     u3191:
  1526     0C7E  2C55               	goto	l2017
  1527     0C7F                     u3190:
  1528     0C7F                     l2023:
  1529                           
  1530                           ;../flowmeter5_main.c: 37:     SSPBUF = MODE_FONT_TABLE[mode];
  1531     0C7F  0871               	movf	Send_LED_Data@mode,w
  1532     0C80  3E0B               	addlw	low ((_MODE_FONT_TABLE-__stringbase)| (0+32768))
  1533     0C81  0084               	movwf	4
  1534     0C82  120A  158A  2000  120A  158A  	fcall	stringdir
  1535     0C87  1283               	bcf	3,5	;RP0=0, select bank0
  1536     0C88  1303               	bcf	3,6	;RP1=0, select bank0
  1537     0C89  0093               	movwf	19	;volatile
  1538     0C8A                     l96:	
  1539                           ;../flowmeter5_main.c: 38:     while (!SSPSTATbits.BF);
  1540                           
  1541     0C8A  1683               	bsf	3,5	;RP0=1, select bank1
  1542     0C8B  1303               	bcf	3,6	;RP1=0, select bank1
  1543     0C8C  1C14               	btfss	20,0	;volatile
  1544     0C8D  2C8F               	goto	u3201
  1545     0C8E  2C90               	goto	u3200
  1546     0C8F                     u3201:
  1547     0C8F  2C8A               	goto	l96
  1548     0C90                     u3200:
  1549     0C90                     l98:
  1550                           
  1551                           ;../flowmeter5_main.c: 40:     PORTCbits.RC0 = 0;
  1552     0C90  1283               	bcf	3,5	;RP0=0, select bank0
  1553     0C91  1303               	bcf	3,6	;RP1=0, select bank0
  1554     0C92  1007               	bcf	7,0	;volatile
  1555                           
  1556                           ;../flowmeter5_main.c: 41:     PORTCbits.RC0 = 1;
  1557     0C93  1407               	bsf	7,0	;volatile
  1558     0C94                     l99:
  1559     0C94  0008               	return
  1560     0C95                     __end_of_Send_LED_Data:
  1561                           
  1562                           	psect	text5
  1563     0EBE                     __ptext5:	
  1564 ;; *************** function _Scale_Display *****************
  1565 ;; Defined at:
  1566 ;;		line 45 in file "../flowmeter5_main.c"
  1567 ;; Parameters:    Size  Location     Type
  1568 ;;  adc_val         2    2[BANK1 ] unsigned int 
  1569 ;;  mode            1    4[BANK1 ] unsigned char 
  1570 ;; Auto vars:     Size  Location     Type
  1571 ;;  scale_max      32    9[BANK1 ] float [8]
  1572 ;;  flow            4   45[BANK1 ] float 
  1573 ;;  current         4   41[BANK1 ] float 
  1574 ;; Return value:  Size  Location     Type
  1575 ;;                  2    2[BANK1 ] unsigned int 
  1576 ;; Registers used:
  1577 ;;		wreg, fsr0l, fsr0h, status,2, status,0, btemp+1, pclath, cstack
  1578 ;; Tracked objects:
  1579 ;;		On entry : 0/0
  1580 ;;		On exit  : 0/0
  1581 ;;		Unchanged: 0/0
  1582 ;; Data sizes:     COMMON   BANK0   BANK1   BANK3   BANK2
  1583 ;;      Params:         0       0       3       0       0
  1584 ;;      Locals:         0       0      40       0       0
  1585 ;;      Temps:          0       0       4       0       0
  1586 ;;      Totals:         0       0      47       0       0
  1587 ;;Total ram usage:       47 bytes
  1588 ;; Hardware stack levels used: 1
  1589 ;; Hardware stack levels required when called: 2
  1590 ;; This function calls:
  1591 ;;		___fladd
  1592 ;;		___fldiv
  1593 ;;		___flmul
  1594 ;;		___fltol
  1595 ;;		___xxtofl
  1596 ;; This function is called by:
  1597 ;;		_main
  1598 ;; This function uses a non-reentrant model
  1599 ;;
  1600                           
  1601     0EBE                     _Scale_Display:	
  1602                           ;psect for function _Scale_Display
  1603                           
  1604     0EBE                     l2025:	
  1605                           ;incstack = 0
  1606                           ; Regs used in _Scale_Display: [wreg-fsr0h+status,2+status,0+btemp+1+pclath+cstack]
  1607                           
  1608                           
  1609                           ;../flowmeter5_main.c: 46:     float current = ((float)(adc_val - 177) / (896 - 177)) * 
      +                          16.0 + 4.0;
  1610     0EBE  3040               	movlw	64
  1611     0EBF  1283               	bcf	3,5	;RP0=0, select bank0
  1612     0EC0  1303               	bcf	3,6	;RP1=0, select bank0
  1613     0EC1  00D7               	movwf	___fladd@b+3
  1614     0EC2  3080               	movlw	128
  1615     0EC3  00D6               	movwf	___fladd@b+2
  1616     0EC4  3000               	movlw	0
  1617     0EC5  00D5               	movwf	___fladd@b+1
  1618     0EC6  3000               	movlw	0
  1619     0EC7  00D4               	movwf	___fladd@b
  1620     0EC8  3041               	movlw	65
  1621     0EC9  00BD               	movwf	___flmul@b+3
  1622     0ECA  3080               	movlw	128
  1623     0ECB  00BC               	movwf	___flmul@b+2
  1624     0ECC  3000               	movlw	0
  1625     0ECD  00BB               	movwf	___flmul@b+1
  1626     0ECE  3000               	movlw	0
  1627     0ECF  00BA               	movwf	___flmul@b
  1628     0ED0  3044               	movlw	68
  1629     0ED1  00A3               	movwf	___fldiv@a+3
  1630     0ED2  3033               	movlw	51
  1631     0ED3  00A2               	movwf	___fldiv@a+2
  1632     0ED4  30C0               	movlw	192
  1633     0ED5  00A1               	movwf	___fldiv@a+1
  1634     0ED6  3000               	movlw	0
  1635     0ED7  00A0               	movwf	___fldiv@a
  1636     0ED8  1683               	bsf	3,5	;RP0=1, select bank1
  1637     0ED9  1303               	bcf	3,6	;RP1=0, select bank1
  1638     0EDA  0822               	movf	Scale_Display@adc_val^(0+128),w
  1639     0EDB  3E4F               	addlw	79
  1640     0EDC  00F0               	movwf	___xxtofl@val
  1641     0EDD  0823               	movf	(Scale_Display@adc_val+1)^(0+128),w
  1642     0EDE  1803               	skipnc
  1643     0EDF  3E01               	addlw	1
  1644     0EE0  3EFF               	addlw	255
  1645     0EE1  00F1               	movwf	___xxtofl@val+1
  1646     0EE2  01F2               	clrf	___xxtofl@val+2
  1647     0EE3  01F3               	clrf	___xxtofl@val+3
  1648     0EE4  3000               	movlw	0
  1649     0EE5  120A  158A  260A  120A  158A  	fcall	___xxtofl
  1650     0EEA  0873               	movf	?___xxtofl+3,w
  1651     0EEB  1283               	bcf	3,5	;RP0=0, select bank0
  1652     0EEC  1303               	bcf	3,6	;RP1=0, select bank0
  1653     0EED  00A7               	movwf	___fldiv@b+3
  1654     0EEE  0872               	movf	?___xxtofl+2,w
  1655     0EEF  00A6               	movwf	___fldiv@b+2
  1656     0EF0  0871               	movf	?___xxtofl+1,w
  1657     0EF1  00A5               	movwf	___fldiv@b+1
  1658     0EF2  0870               	movf	?___xxtofl,w
  1659     0EF3  00A4               	movwf	___fldiv@b
  1660     0EF4  120A  118A  207B  120A  158A  	fcall	___fldiv
  1661     0EF9  1283               	bcf	3,5	;RP0=0, select bank0
  1662     0EFA  1303               	bcf	3,6	;RP1=0, select bank0
  1663     0EFB  0823               	movf	?___fldiv+3,w
  1664     0EFC  00C1               	movwf	___flmul@a+3
  1665     0EFD  0822               	movf	?___fldiv+2,w
  1666     0EFE  00C0               	movwf	___flmul@a+2
  1667     0EFF  0821               	movf	?___fldiv+1,w
  1668     0F00  00BF               	movwf	___flmul@a+1
  1669     0F01  0820               	movf	?___fldiv,w
  1670     0F02  00BE               	movwf	___flmul@a
  1671     0F03  120A  118A  2495  120A  158A  	fcall	___flmul
  1672     0F08  1283               	bcf	3,5	;RP0=0, select bank0
  1673     0F09  1303               	bcf	3,6	;RP1=0, select bank0
  1674     0F0A  083D               	movf	?___flmul+3,w
  1675     0F0B  00DB               	movwf	___fladd@a+3
  1676     0F0C  083C               	movf	?___flmul+2,w
  1677     0F0D  00DA               	movwf	___fladd@a+2
  1678     0F0E  083B               	movf	?___flmul+1,w
  1679     0F0F  00D9               	movwf	___fladd@a+1
  1680     0F10  083A               	movf	?___flmul,w
  1681     0F11  00D8               	movwf	___fladd@a
  1682     0F12  120A  118A  2245  120A  158A  	fcall	___fladd
  1683     0F17  1283               	bcf	3,5	;RP0=0, select bank0
  1684     0F18  1303               	bcf	3,6	;RP1=0, select bank0
  1685     0F19  0857               	movf	?___fladd+3,w
  1686     0F1A  1683               	bsf	3,5	;RP0=1, select bank1
  1687     0F1B  1303               	bcf	3,6	;RP1=0, select bank1
  1688     0F1C  00CC               	movwf	(Scale_Display@current+3)^(0+128)
  1689     0F1D  1283               	bcf	3,5	;RP0=0, select bank0
  1690     0F1E  1303               	bcf	3,6	;RP1=0, select bank0
  1691     0F1F  0856               	movf	?___fladd+2,w
  1692     0F20  1683               	bsf	3,5	;RP0=1, select bank1
  1693     0F21  1303               	bcf	3,6	;RP1=0, select bank1
  1694     0F22  00CB               	movwf	(Scale_Display@current+2)^(0+128)
  1695     0F23  1283               	bcf	3,5	;RP0=0, select bank0
  1696     0F24  1303               	bcf	3,6	;RP1=0, select bank0
  1697     0F25  0855               	movf	?___fladd+1,w
  1698     0F26  1683               	bsf	3,5	;RP0=1, select bank1
  1699     0F27  1303               	bcf	3,6	;RP1=0, select bank1
  1700     0F28  00CA               	movwf	(Scale_Display@current+1)^(0+128)
  1701     0F29  1283               	bcf	3,5	;RP0=0, select bank0
  1702     0F2A  1303               	bcf	3,6	;RP1=0, select bank0
  1703     0F2B  0854               	movf	?___fladd,w
  1704     0F2C  1683               	bsf	3,5	;RP0=1, select bank1
  1705     0F2D  1303               	bcf	3,6	;RP1=0, select bank1
  1706     0F2E  00C9               	movwf	Scale_Display@current^(0+128)
  1707     0F2F                     l2027:
  1708                           
  1709                           ;../flowmeter5_main.c: 48:     float scale_max[] = {30.0, 50.0, 75.0, 100.0, 150.0, 200.
      +                          0, 300.0, 500.0};
  1710     0F2F  3090               	movlw	Scale_Display@F1443& (0+255)
  1711     0F30  0084               	movwf	4
  1712     0F31  30A9               	movlw	low Scale_Display@scale_max
  1713     0F32  00A5               	movwf	??_Scale_Display^(0+128)
  1714     0F33  3020               	movlw	32
  1715     0F34  00A6               	movwf	(??_Scale_Display^(0+128)+1)
  1716     0F35                     u3210:
  1717     0F35  1783               	bsf	3,7	;select IRP bank3
  1718     0F36  0800               	movf	0,w
  1719     0F37  00A7               	movwf	(??_Scale_Display^(0+128)+2)
  1720     0F38  0A04               	incf	4,w
  1721     0F39  00A8               	movwf	(??_Scale_Display^(0+128)+3)
  1722     0F3A  0825               	movf	??_Scale_Display^(0+128),w
  1723     0F3B  0084               	movwf	4
  1724     0F3C  1383               	bcf	3,7	;select IRP bank1
  1725     0F3D  0827               	movf	(??_Scale_Display^(0+128)+2),w
  1726     0F3E  0080               	movwf	0
  1727     0F3F  0A04               	incf	4,w
  1728     0F40  00A5               	movwf	??_Scale_Display^(0+128)
  1729     0F41  0828               	movf	(??_Scale_Display^(0+128)+3),w
  1730     0F42  0084               	movwf	4
  1731     0F43  0BA6               	decfsz	(??_Scale_Display^(0+128)+1),f
  1732     0F44  2F35               	goto	u3210
  1733     0F45                     l2029:
  1734                           
  1735                           ;../flowmeter5_main.c: 49:     float flow = ((current - 4.0) / 16.0) * scale_max[mode];
  1736     0F45  0824               	movf	Scale_Display@mode^(0+128),w
  1737     0F46  00A5               	movwf	??_Scale_Display^(0+128)
  1738     0F47  3001               	movlw	1
  1739     0F48                     u3225:
  1740     0F48  1003               	clrc
  1741     0F49  0DA5               	rlf	??_Scale_Display^(0+128),f
  1742     0F4A  3EFF               	addlw	-1
  1743     0F4B  1D03               	skipz
  1744     0F4C  2F48               	goto	u3225
  1745     0F4D  1003               	clrc
  1746     0F4E  0D25               	rlf	??_Scale_Display^(0+128),w
  1747     0F4F  3EA9               	addlw	(low (Scale_Display@scale_max| 0))& (0+255)
  1748     0F50  0084               	movwf	4
  1749     0F51  0800               	movf	0,w
  1750     0F52  1283               	bcf	3,5	;RP0=0, select bank0
  1751     0F53  1303               	bcf	3,6	;RP1=0, select bank0
  1752     0F54  00BA               	movwf	___flmul@b
  1753     0F55  0A84               	incf	4,f
  1754     0F56  0800               	movf	0,w
  1755     0F57  00BB               	movwf	___flmul@b+1
  1756     0F58  0A84               	incf	4,f
  1757     0F59  0800               	movf	0,w
  1758     0F5A  00BC               	movwf	___flmul@b+2
  1759     0F5B  0A84               	incf	4,f
  1760     0F5C  0800               	movf	0,w
  1761     0F5D  00BD               	movwf	___flmul@b+3
  1762     0F5E  3041               	movlw	65
  1763     0F5F  00A3               	movwf	___fldiv@a+3
  1764     0F60  3080               	movlw	128
  1765     0F61  00A2               	movwf	___fldiv@a+2
  1766     0F62  3000               	movlw	0
  1767     0F63  00A1               	movwf	___fldiv@a+1
  1768     0F64  3000               	movlw	0
  1769     0F65  00A0               	movwf	___fldiv@a
  1770     0F66  30C0               	movlw	192
  1771     0F67  00D7               	movwf	___fladd@b+3
  1772     0F68  3080               	movlw	128
  1773     0F69  00D6               	movwf	___fladd@b+2
  1774     0F6A  3000               	movlw	0
  1775     0F6B  00D5               	movwf	___fladd@b+1
  1776     0F6C  3000               	movlw	0
  1777     0F6D  00D4               	movwf	___fladd@b
  1778     0F6E  1683               	bsf	3,5	;RP0=1, select bank1
  1779     0F6F  1303               	bcf	3,6	;RP1=0, select bank1
  1780     0F70  084C               	movf	(Scale_Display@current+3)^(0+128),w
  1781     0F71  1283               	bcf	3,5	;RP0=0, select bank0
  1782     0F72  1303               	bcf	3,6	;RP1=0, select bank0
  1783     0F73  00DB               	movwf	___fladd@a+3
  1784     0F74  1683               	bsf	3,5	;RP0=1, select bank1
  1785     0F75  1303               	bcf	3,6	;RP1=0, select bank1
  1786     0F76  084B               	movf	(Scale_Display@current+2)^(0+128),w
  1787     0F77  1283               	bcf	3,5	;RP0=0, select bank0
  1788     0F78  1303               	bcf	3,6	;RP1=0, select bank0
  1789     0F79  00DA               	movwf	___fladd@a+2
  1790     0F7A  1683               	bsf	3,5	;RP0=1, select bank1
  1791     0F7B  1303               	bcf	3,6	;RP1=0, select bank1
  1792     0F7C  084A               	movf	(Scale_Display@current+1)^(0+128),w
  1793     0F7D  1283               	bcf	3,5	;RP0=0, select bank0
  1794     0F7E  1303               	bcf	3,6	;RP1=0, select bank0
  1795     0F7F  00D9               	movwf	___fladd@a+1
  1796     0F80  1683               	bsf	3,5	;RP0=1, select bank1
  1797     0F81  1303               	bcf	3,6	;RP1=0, select bank1
  1798     0F82  0849               	movf	Scale_Display@current^(0+128),w
  1799     0F83  1283               	bcf	3,5	;RP0=0, select bank0
  1800     0F84  1303               	bcf	3,6	;RP1=0, select bank0
  1801     0F85  00D8               	movwf	___fladd@a
  1802     0F86  120A  118A  2245  120A  158A  	fcall	___fladd
  1803     0F8B  1283               	bcf	3,5	;RP0=0, select bank0
  1804     0F8C  1303               	bcf	3,6	;RP1=0, select bank0
  1805     0F8D  0857               	movf	?___fladd+3,w
  1806     0F8E  00A7               	movwf	___fldiv@b+3
  1807     0F8F  0856               	movf	?___fladd+2,w
  1808     0F90  00A6               	movwf	___fldiv@b+2
  1809     0F91  0855               	movf	?___fladd+1,w
  1810     0F92  00A5               	movwf	___fldiv@b+1
  1811     0F93  0854               	movf	?___fladd,w
  1812     0F94  00A4               	movwf	___fldiv@b
  1813     0F95  120A  118A  207B  120A  158A  	fcall	___fldiv
  1814     0F9A  1283               	bcf	3,5	;RP0=0, select bank0
  1815     0F9B  1303               	bcf	3,6	;RP1=0, select bank0
  1816     0F9C  0823               	movf	?___fldiv+3,w
  1817     0F9D  00C1               	movwf	___flmul@a+3
  1818     0F9E  0822               	movf	?___fldiv+2,w
  1819     0F9F  00C0               	movwf	___flmul@a+2
  1820     0FA0  0821               	movf	?___fldiv+1,w
  1821     0FA1  00BF               	movwf	___flmul@a+1
  1822     0FA2  0820               	movf	?___fldiv,w
  1823     0FA3  00BE               	movwf	___flmul@a
  1824     0FA4  120A  118A  2495  120A  158A  	fcall	___flmul
  1825     0FA9  1283               	bcf	3,5	;RP0=0, select bank0
  1826     0FAA  1303               	bcf	3,6	;RP1=0, select bank0
  1827     0FAB  083D               	movf	?___flmul+3,w
  1828     0FAC  1683               	bsf	3,5	;RP0=1, select bank1
  1829     0FAD  1303               	bcf	3,6	;RP1=0, select bank1
  1830     0FAE  00D0               	movwf	(Scale_Display@flow+3)^(0+128)
  1831     0FAF  1283               	bcf	3,5	;RP0=0, select bank0
  1832     0FB0  1303               	bcf	3,6	;RP1=0, select bank0
  1833     0FB1  083C               	movf	?___flmul+2,w
  1834     0FB2  1683               	bsf	3,5	;RP0=1, select bank1
  1835     0FB3  1303               	bcf	3,6	;RP1=0, select bank1
  1836     0FB4  00CF               	movwf	(Scale_Display@flow+2)^(0+128)
  1837     0FB5  1283               	bcf	3,5	;RP0=0, select bank0
  1838     0FB6  1303               	bcf	3,6	;RP1=0, select bank0
  1839     0FB7  083B               	movf	?___flmul+1,w
  1840     0FB8  1683               	bsf	3,5	;RP0=1, select bank1
  1841     0FB9  1303               	bcf	3,6	;RP1=0, select bank1
  1842     0FBA  00CE               	movwf	(Scale_Display@flow+1)^(0+128)
  1843     0FBB  1283               	bcf	3,5	;RP0=0, select bank0
  1844     0FBC  1303               	bcf	3,6	;RP1=0, select bank0
  1845     0FBD  083A               	movf	?___flmul,w
  1846     0FBE  1683               	bsf	3,5	;RP0=1, select bank1
  1847     0FBF  1303               	bcf	3,6	;RP1=0, select bank1
  1848     0FC0  00CD               	movwf	Scale_Display@flow^(0+128)
  1849     0FC1                     l2031:
  1850                           
  1851                           ;../flowmeter5_main.c: 51:     return (unsigned int)(flow + 0.5);
  1852     0FC1  0850               	movf	(Scale_Display@flow+3)^(0+128),w
  1853     0FC2  1283               	bcf	3,5	;RP0=0, select bank0
  1854     0FC3  1303               	bcf	3,6	;RP1=0, select bank0
  1855     0FC4  00DB               	movwf	___fladd@a+3
  1856     0FC5  1683               	bsf	3,5	;RP0=1, select bank1
  1857     0FC6  1303               	bcf	3,6	;RP1=0, select bank1
  1858     0FC7  084F               	movf	(Scale_Display@flow+2)^(0+128),w
  1859     0FC8  1283               	bcf	3,5	;RP0=0, select bank0
  1860     0FC9  1303               	bcf	3,6	;RP1=0, select bank0
  1861     0FCA  00DA               	movwf	___fladd@a+2
  1862     0FCB  1683               	bsf	3,5	;RP0=1, select bank1
  1863     0FCC  1303               	bcf	3,6	;RP1=0, select bank1
  1864     0FCD  084E               	movf	(Scale_Display@flow+1)^(0+128),w
  1865     0FCE  1283               	bcf	3,5	;RP0=0, select bank0
  1866     0FCF  1303               	bcf	3,6	;RP1=0, select bank0
  1867     0FD0  00D9               	movwf	___fladd@a+1
  1868     0FD1  1683               	bsf	3,5	;RP0=1, select bank1
  1869     0FD2  1303               	bcf	3,6	;RP1=0, select bank1
  1870     0FD3  084D               	movf	Scale_Display@flow^(0+128),w
  1871     0FD4  1283               	bcf	3,5	;RP0=0, select bank0
  1872     0FD5  1303               	bcf	3,6	;RP1=0, select bank0
  1873     0FD6  00D8               	movwf	___fladd@a
  1874     0FD7  303F               	movlw	63
  1875     0FD8  00D7               	movwf	___fladd@b+3
  1876     0FD9  3000               	movlw	0
  1877     0FDA  00D6               	movwf	___fladd@b+2
  1878     0FDB  3000               	movlw	0
  1879     0FDC  00D5               	movwf	___fladd@b+1
  1880     0FDD  3000               	movlw	0
  1881     0FDE  00D4               	movwf	___fladd@b
  1882     0FDF  120A  118A  2245  120A  158A  	fcall	___fladd
  1883     0FE4  1283               	bcf	3,5	;RP0=0, select bank0
  1884     0FE5  1303               	bcf	3,6	;RP1=0, select bank0
  1885     0FE6  0857               	movf	?___fladd+3,w
  1886     0FE7  00EB               	movwf	___fltol@f1+3
  1887     0FE8  0856               	movf	?___fladd+2,w
  1888     0FE9  00EA               	movwf	___fltol@f1+2
  1889     0FEA  0855               	movf	?___fladd+1,w
  1890     0FEB  00E9               	movwf	___fltol@f1+1
  1891     0FEC  0854               	movf	?___fladd,w
  1892     0FED  00E8               	movwf	___fltol@f1
  1893     0FEE  120A  158A  24D7  120A  158A  	fcall	___fltol
  1894     0FF3  1283               	bcf	3,5	;RP0=0, select bank0
  1895     0FF4  1303               	bcf	3,6	;RP1=0, select bank0
  1896     0FF5  0869               	movf	?___fltol+1,w
  1897     0FF6  1683               	bsf	3,5	;RP0=1, select bank1
  1898     0FF7  1303               	bcf	3,6	;RP1=0, select bank1
  1899     0FF8  00A3               	movwf	(?_Scale_Display+1)^(0+128)
  1900     0FF9  1283               	bcf	3,5	;RP0=0, select bank0
  1901     0FFA  1303               	bcf	3,6	;RP1=0, select bank0
  1902     0FFB  0868               	movf	?___fltol,w
  1903     0FFC  1683               	bsf	3,5	;RP0=1, select bank1
  1904     0FFD  1303               	bcf	3,6	;RP1=0, select bank1
  1905     0FFE  00A2               	movwf	?_Scale_Display^(0+128)
  1906     0FFF                     l104:
  1907     0FFF  0008               	return
  1908     1000                     __end_of_Scale_Display:
  1909                           
  1910                           	psect	text6
  1911     0E0A                     __ptext6:	
  1912 ;; *************** function ___xxtofl *****************
  1913 ;; Defined at:
  1914 ;;		line 10 in file "C:\Program Files\Microchip\xc8\v3.00\pic\sources\c99\common\xxtofl.c"
  1915 ;; Parameters:    Size  Location     Type
  1916 ;;  sign            1    wreg     unsigned char 
  1917 ;;  val             4    0[COMMON] long 
  1918 ;; Auto vars:     Size  Location     Type
  1919 ;;  sign            1    8[COMMON] unsigned char 
  1920 ;;  arg             4   10[COMMON] unsigned long 
  1921 ;;  exp             1    9[COMMON] unsigned char 
  1922 ;; Return value:  Size  Location     Type
  1923 ;;                  4    0[COMMON] unsigned char 
  1924 ;; Registers used:
  1925 ;;		wreg, status,2, status,0
  1926 ;; Tracked objects:
  1927 ;;		On entry : 0/0
  1928 ;;		On exit  : 0/0
  1929 ;;		Unchanged: 0/0
  1930 ;; Data sizes:     COMMON   BANK0   BANK1   BANK3   BANK2
  1931 ;;      Params:         4       0       0       0       0
  1932 ;;      Locals:         6       0       0       0       0
  1933 ;;      Temps:          4       0       0       0       0
  1934 ;;      Totals:        14       0       0       0       0
  1935 ;;Total ram usage:       14 bytes
  1936 ;; Hardware stack levels used: 1
  1937 ;; This function calls:
  1938 ;;		Nothing
  1939 ;; This function is called by:
  1940 ;;		_Scale_Display
  1941 ;; This function uses a non-reentrant model
  1942 ;;
  1943                           
  1944     0E0A                     ___xxtofl:	
  1945                           ;psect for function ___xxtofl
  1946                           
  1947                           
  1948                           ;incstack = 0
  1949                           ; Regs used in ___xxtofl: [wreg+status,2+status,0]
  1950                           ;___xxtofl@sign stored from wreg
  1951     0E0A  00F8               	movwf	___xxtofl@sign
  1952     0E0B                     l1955:
  1953     0E0B  0878               	movf	___xxtofl@sign,w
  1954     0E0C  1903               	btfsc	3,2
  1955     0E0D  2E0F               	goto	u3031
  1956     0E0E  2E10               	goto	u3030
  1957     0E0F                     u3031:
  1958     0E0F  2E24               	goto	l1961
  1959     0E10                     u3030:
  1960     0E10                     l1957:
  1961     0E10  1FF3               	btfss	___xxtofl@val+3,7
  1962     0E11  2E13               	goto	u3041
  1963     0E12  2E14               	goto	u3040
  1964     0E13                     u3041:
  1965     0E13  2E24               	goto	l1961
  1966     0E14                     u3040:
  1967     0E14                     l1959:
  1968     0E14  0970               	comf	___xxtofl@val,w
  1969     0E15  00FA               	movwf	___xxtofl@arg
  1970     0E16  0971               	comf	___xxtofl@val+1,w
  1971     0E17  00FB               	movwf	___xxtofl@arg+1
  1972     0E18  0972               	comf	___xxtofl@val+2,w
  1973     0E19  00FC               	movwf	___xxtofl@arg+2
  1974     0E1A  0973               	comf	___xxtofl@val+3,w
  1975     0E1B  00FD               	movwf	___xxtofl@arg+3
  1976     0E1C  0AFA               	incf	___xxtofl@arg,f
  1977     0E1D  1903               	skipnz
  1978     0E1E  0AFB               	incf	___xxtofl@arg+1,f
  1979     0E1F  1903               	skipnz
  1980     0E20  0AFC               	incf	___xxtofl@arg+2,f
  1981     0E21  1903               	skipnz
  1982     0E22  0AFD               	incf	___xxtofl@arg+3,f
  1983     0E23  2E2C               	goto	l650
  1984     0E24                     l1961:
  1985     0E24  0873               	movf	___xxtofl@val+3,w
  1986     0E25  00FD               	movwf	___xxtofl@arg+3
  1987     0E26  0872               	movf	___xxtofl@val+2,w
  1988     0E27  00FC               	movwf	___xxtofl@arg+2
  1989     0E28  0871               	movf	___xxtofl@val+1,w
  1990     0E29  00FB               	movwf	___xxtofl@arg+1
  1991     0E2A  0870               	movf	___xxtofl@val,w
  1992     0E2B  00FA               	movwf	___xxtofl@arg
  1993     0E2C                     l650:
  1994     0E2C  0873               	movf	___xxtofl@val+3,w
  1995     0E2D  0472               	iorwf	___xxtofl@val+2,w
  1996     0E2E  0471               	iorwf	___xxtofl@val+1,w
  1997     0E2F  0470               	iorwf	___xxtofl@val,w
  1998     0E30  1D03               	skipz
  1999     0E31  2E33               	goto	u3051
  2000     0E32  2E34               	goto	u3050
  2001     0E33                     u3051:
  2002     0E33  2E3D               	goto	l651
  2003     0E34                     u3050:
  2004     0E34                     l1963:
  2005     0E34  3000               	movlw	0
  2006     0E35  00F3               	movwf	?___xxtofl+3
  2007     0E36  3000               	movlw	0
  2008     0E37  00F2               	movwf	?___xxtofl+2
  2009     0E38  3000               	movlw	0
  2010     0E39  00F1               	movwf	?___xxtofl+1
  2011     0E3A  3000               	movlw	0
  2012     0E3B  00F0               	movwf	?___xxtofl
  2013     0E3C  2EBD               	goto	l652
  2014     0E3D                     l651:
  2015     0E3D  3096               	movlw	150
  2016     0E3E  00F9               	movwf	___xxtofl@exp
  2017     0E3F  2E4B               	goto	l1969
  2018     0E40                     l1967:
  2019     0E40  3001               	movlw	1
  2020     0E41  07F9               	addwf	___xxtofl@exp,f
  2021     0E42  3001               	movlw	1
  2022     0E43                     u3065:
  2023     0E43  1003               	clrc
  2024     0E44  0CFD               	rrf	___xxtofl@arg+3,f
  2025     0E45  0CFC               	rrf	___xxtofl@arg+2,f
  2026     0E46  0CFB               	rrf	___xxtofl@arg+1,f
  2027     0E47  0CFA               	rrf	___xxtofl@arg,f
  2028     0E48  3EFF               	addlw	-1
  2029     0E49  1D03               	skipz
  2030     0E4A  2E43               	goto	u3065
  2031     0E4B                     l1969:
  2032     0E4B  30FE               	movlw	254
  2033     0E4C  057D               	andwf	___xxtofl@arg+3,w
  2034     0E4D  1D03               	btfss	3,2
  2035     0E4E  2E50               	goto	u3071
  2036     0E4F  2E51               	goto	u3070
  2037     0E50                     u3071:
  2038     0E50  2E40               	goto	l1967
  2039     0E51                     u3070:
  2040     0E51  2E6B               	goto	l656
  2041     0E52                     l1971:
  2042     0E52  3001               	movlw	1
  2043     0E53  07F9               	addwf	___xxtofl@exp,f
  2044     0E54                     l1973:
  2045     0E54  3001               	movlw	1
  2046     0E55  07FA               	addwf	___xxtofl@arg,f
  2047     0E56  3000               	movlw	0
  2048     0E57  1803               	skipnc
  2049     0E58  3001               	movlw	1
  2050     0E59  07FB               	addwf	___xxtofl@arg+1,f
  2051     0E5A  3000               	movlw	0
  2052     0E5B  1803               	skipnc
  2053     0E5C  3001               	movlw	1
  2054     0E5D  07FC               	addwf	___xxtofl@arg+2,f
  2055     0E5E  3000               	movlw	0
  2056     0E5F  1803               	skipnc
  2057     0E60  3001               	movlw	1
  2058     0E61  07FD               	addwf	___xxtofl@arg+3,f
  2059     0E62                     l1975:
  2060     0E62  3001               	movlw	1
  2061     0E63                     u3085:
  2062     0E63  1003               	clrc
  2063     0E64  0CFD               	rrf	___xxtofl@arg+3,f
  2064     0E65  0CFC               	rrf	___xxtofl@arg+2,f
  2065     0E66  0CFB               	rrf	___xxtofl@arg+1,f
  2066     0E67  0CFA               	rrf	___xxtofl@arg,f
  2067     0E68  3EFF               	addlw	-1
  2068     0E69  1D03               	skipz
  2069     0E6A  2E63               	goto	u3085
  2070     0E6B                     l656:
  2071     0E6B  30FF               	movlw	255
  2072     0E6C  057D               	andwf	___xxtofl@arg+3,w
  2073     0E6D  1D03               	btfss	3,2
  2074     0E6E  2E70               	goto	u3091
  2075     0E6F  2E71               	goto	u3090
  2076     0E70                     u3091:
  2077     0E70  2E52               	goto	l1971
  2078     0E71                     u3090:
  2079     0E71  2E7D               	goto	l1979
  2080     0E72                     l1977:
  2081     0E72  3001               	movlw	1
  2082     0E73  02F9               	subwf	___xxtofl@exp,f
  2083     0E74  3001               	movlw	1
  2084     0E75  00F4               	movwf	??___xxtofl
  2085     0E76                     u3105:
  2086     0E76  1003               	clrc
  2087     0E77  0DFA               	rlf	___xxtofl@arg,f
  2088     0E78  0DFB               	rlf	___xxtofl@arg+1,f
  2089     0E79  0DFC               	rlf	___xxtofl@arg+2,f
  2090     0E7A  0DFD               	rlf	___xxtofl@arg+3,f
  2091     0E7B  0BF4               	decfsz	??___xxtofl,f
  2092     0E7C  2E76               	goto	u3105
  2093     0E7D                     l1979:
  2094     0E7D  1BFC               	btfsc	___xxtofl@arg+2,7
  2095     0E7E  2E80               	goto	u3111
  2096     0E7F  2E81               	goto	u3110
  2097     0E80                     u3111:
  2098     0E80  2E87               	goto	l663
  2099     0E81                     u3110:
  2100     0E81                     l1981:
  2101     0E81  3002               	movlw	2
  2102     0E82  0279               	subwf	___xxtofl@exp,w
  2103     0E83  1803               	skipnc
  2104     0E84  2E86               	goto	u3121
  2105     0E85  2E87               	goto	u3120
  2106     0E86                     u3121:
  2107     0E86  2E72               	goto	l1977
  2108     0E87                     u3120:
  2109     0E87                     l663:
  2110     0E87  1879               	btfsc	___xxtofl@exp,0
  2111     0E88  2E8A               	goto	u3131
  2112     0E89  2E8B               	goto	u3130
  2113     0E8A                     u3131:
  2114     0E8A  2E93               	goto	l664
  2115     0E8B                     u3130:
  2116     0E8B                     l1983:
  2117     0E8B  30FF               	movlw	255
  2118     0E8C  05FA               	andwf	___xxtofl@arg,f
  2119     0E8D  30FF               	movlw	255
  2120     0E8E  05FB               	andwf	___xxtofl@arg+1,f
  2121     0E8F  307F               	movlw	127
  2122     0E90  05FC               	andwf	___xxtofl@arg+2,f
  2123     0E91  30FF               	movlw	255
  2124     0E92  05FD               	andwf	___xxtofl@arg+3,f
  2125     0E93                     l664:
  2126     0E93  1003               	clrc
  2127     0E94  0CF9               	rrf	___xxtofl@exp,f
  2128     0E95                     l1985:
  2129     0E95  0879               	movf	___xxtofl@exp,w
  2130     0E96  00F4               	movwf	??___xxtofl
  2131     0E97  01F5               	clrf	??___xxtofl+1
  2132     0E98  01F6               	clrf	??___xxtofl+2
  2133     0E99  01F7               	clrf	??___xxtofl+3
  2134     0E9A  3018               	movlw	24
  2135     0E9B                     u3145:
  2136     0E9B  1003               	clrc
  2137     0E9C  0DF4               	rlf	??___xxtofl,f
  2138     0E9D  0DF5               	rlf	??___xxtofl+1,f
  2139     0E9E  0DF6               	rlf	??___xxtofl+2,f
  2140     0E9F  0DF7               	rlf	??___xxtofl+3,f
  2141     0EA0                     u3140:
  2142     0EA0  3EFF               	addlw	-1
  2143     0EA1  1D03               	skipz
  2144     0EA2  2E9B               	goto	u3145
  2145     0EA3  0874               	movf	??___xxtofl,w
  2146     0EA4  04FA               	iorwf	___xxtofl@arg,f
  2147     0EA5  0875               	movf	??___xxtofl+1,w
  2148     0EA6  04FB               	iorwf	___xxtofl@arg+1,f
  2149     0EA7  0876               	movf	??___xxtofl+2,w
  2150     0EA8  04FC               	iorwf	___xxtofl@arg+2,f
  2151     0EA9  0877               	movf	??___xxtofl+3,w
  2152     0EAA  04FD               	iorwf	___xxtofl@arg+3,f
  2153     0EAB                     l1987:
  2154     0EAB  0878               	movf	___xxtofl@sign,w
  2155     0EAC  1903               	btfsc	3,2
  2156     0EAD  2EAF               	goto	u3151
  2157     0EAE  2EB0               	goto	u3150
  2158     0EAF                     u3151:
  2159     0EAF  2EB5               	goto	l1993
  2160     0EB0                     u3150:
  2161     0EB0                     l1989:
  2162     0EB0  1FF3               	btfss	___xxtofl@val+3,7
  2163     0EB1  2EB3               	goto	u3161
  2164     0EB2  2EB4               	goto	u3160
  2165     0EB3                     u3161:
  2166     0EB3  2EB5               	goto	l1993
  2167     0EB4                     u3160:
  2168     0EB4                     l1991:
  2169     0EB4  17FD               	bsf	___xxtofl@arg+3,7
  2170     0EB5                     l1993:
  2171     0EB5  087D               	movf	___xxtofl@arg+3,w
  2172     0EB6  00F3               	movwf	?___xxtofl+3
  2173     0EB7  087C               	movf	___xxtofl@arg+2,w
  2174     0EB8  00F2               	movwf	?___xxtofl+2
  2175     0EB9  087B               	movf	___xxtofl@arg+1,w
  2176     0EBA  00F1               	movwf	?___xxtofl+1
  2177     0EBB  087A               	movf	___xxtofl@arg,w
  2178     0EBC  00F0               	movwf	?___xxtofl
  2179     0EBD                     l652:
  2180     0EBD  0008               	return
  2181     0EBE                     __end_of___xxtofl:
  2182                           
  2183                           	psect	text7
  2184     0CD7                     __ptext7:	
  2185 ;; *************** function ___fltol *****************
  2186 ;; Defined at:
  2187 ;;		line 43 in file "C:\Program Files\Microchip\xc8\v3.00\pic\sources\c99\common\fltol.c"
  2188 ;; Parameters:    Size  Location     Type
  2189 ;;  f1              4   72[BANK0 ] unsigned char 
  2190 ;; Auto vars:     Size  Location     Type
  2191 ;;  exp1            1    1[BANK1 ] unsigned char 
  2192 ;;  sign1           1    0[BANK1 ] unsigned char 
  2193 ;; Return value:  Size  Location     Type
  2194 ;;                  4   72[BANK0 ] long 
  2195 ;; Registers used:
  2196 ;;		wreg, status,2, status,0
  2197 ;; Tracked objects:
  2198 ;;		On entry : 0/0
  2199 ;;		On exit  : 0/0
  2200 ;;		Unchanged: 0/0
  2201 ;; Data sizes:     COMMON   BANK0   BANK1   BANK3   BANK2
  2202 ;;      Params:         0       4       0       0       0
  2203 ;;      Locals:         0       0       2       0       0
  2204 ;;      Temps:          0       4       0       0       0
  2205 ;;      Totals:         0       8       2       0       0
  2206 ;;Total ram usage:       10 bytes
  2207 ;; Hardware stack levels used: 1
  2208 ;; This function calls:
  2209 ;;		Nothing
  2210 ;; This function is called by:
  2211 ;;		_Scale_Display
  2212 ;; This function uses a non-reentrant model
  2213 ;;
  2214                           
  2215     0CD7                     ___fltol:	
  2216                           ;psect for function ___fltol
  2217                           
  2218     0CD7                     l1387:	
  2219                           ;incstack = 0
  2220                           ; Regs used in ___fltol: [wreg+status,2+status,0]
  2221                           
  2222     0CD7  1003               	clrc
  2223     0CD8  1283               	bcf	3,5	;RP0=0, select bank0
  2224     0CD9  1303               	bcf	3,6	;RP1=0, select bank0
  2225     0CDA  0D6A               	rlf	___fltol@f1+2,w
  2226     0CDB  0D6B               	rlf	___fltol@f1+3,w
  2227     0CDC  1683               	bsf	3,5	;RP0=1, select bank1
  2228     0CDD  1303               	bcf	3,6	;RP1=0, select bank1
  2229     0CDE  00A1               	movwf	___fltol@exp1^(0+128)
  2230     0CDF  0821               	movf	___fltol@exp1^(0+128),w
  2231     0CE0  1D03               	btfss	3,2
  2232     0CE1  2CE3               	goto	u1681
  2233     0CE2  2CE4               	goto	u1680
  2234     0CE3                     u1681:
  2235     0CE3  2CEF               	goto	l1393
  2236     0CE4                     u1680:
  2237     0CE4                     l1389:
  2238     0CE4  3000               	movlw	0
  2239     0CE5  1283               	bcf	3,5	;RP0=0, select bank0
  2240     0CE6  1303               	bcf	3,6	;RP1=0, select bank0
  2241     0CE7  00EB               	movwf	?___fltol+3
  2242     0CE8  3000               	movlw	0
  2243     0CE9  00EA               	movwf	?___fltol+2
  2244     0CEA  3000               	movlw	0
  2245     0CEB  00E9               	movwf	?___fltol+1
  2246     0CEC  3000               	movlw	0
  2247     0CED  00E8               	movwf	?___fltol
  2248     0CEE  2D62               	goto	l403
  2249     0CEF                     l1393:
  2250     0CEF  1283               	bcf	3,5	;RP0=0, select bank0
  2251     0CF0  1303               	bcf	3,6	;RP1=0, select bank0
  2252     0CF1  0868               	movf	___fltol@f1,w
  2253     0CF2  00EC               	movwf	??___fltol
  2254     0CF3  0869               	movf	___fltol@f1+1,w
  2255     0CF4  00ED               	movwf	??___fltol+1
  2256     0CF5  086A               	movf	___fltol@f1+2,w
  2257     0CF6  00EE               	movwf	??___fltol+2
  2258     0CF7  086B               	movf	___fltol@f1+3,w
  2259     0CF8  00EF               	movwf	??___fltol+3
  2260     0CF9  301F               	movlw	31
  2261     0CFA                     u1695:
  2262     0CFA  1003               	clrc
  2263     0CFB  0CEF               	rrf	??___fltol+3,f
  2264     0CFC  0CEE               	rrf	??___fltol+2,f
  2265     0CFD  0CED               	rrf	??___fltol+1,f
  2266     0CFE  0CEC               	rrf	??___fltol,f
  2267     0CFF                     u1690:
  2268     0CFF  3EFF               	addlw	-1
  2269     0D00  1D03               	skipz
  2270     0D01  2CFA               	goto	u1695
  2271     0D02  086C               	movf	??___fltol,w
  2272     0D03  1683               	bsf	3,5	;RP0=1, select bank1
  2273     0D04  1303               	bcf	3,6	;RP1=0, select bank1
  2274     0D05  00A0               	movwf	___fltol@sign1^(0+128)
  2275     0D06                     l1395:
  2276     0D06  1283               	bcf	3,5	;RP0=0, select bank0
  2277     0D07  1303               	bcf	3,6	;RP1=0, select bank0
  2278     0D08  17EA               	bsf	___fltol@f1+2,7
  2279     0D09                     l1397:
  2280     0D09  30FF               	movlw	255
  2281     0D0A  05E8               	andwf	___fltol@f1,f
  2282     0D0B  30FF               	movlw	255
  2283     0D0C  05E9               	andwf	___fltol@f1+1,f
  2284     0D0D  30FF               	movlw	255
  2285     0D0E  05EA               	andwf	___fltol@f1+2,f
  2286     0D0F  3000               	movlw	0
  2287     0D10  05EB               	andwf	___fltol@f1+3,f
  2288     0D11                     l1399:
  2289     0D11  3096               	movlw	150
  2290     0D12  1683               	bsf	3,5	;RP0=1, select bank1
  2291     0D13  1303               	bcf	3,6	;RP1=0, select bank1
  2292     0D14  02A1               	subwf	___fltol@exp1^(0+128),f
  2293     0D15                     l1401:
  2294     0D15  1FA1               	btfss	___fltol@exp1^(0+128),7
  2295     0D16  2D18               	goto	u1701
  2296     0D17  2D19               	goto	u1700
  2297     0D18                     u1701:
  2298     0D18  2D35               	goto	l1411
  2299     0D19                     u1700:
  2300     0D19                     l1403:
  2301     0D19  0821               	movf	___fltol@exp1^(0+128),w
  2302     0D1A  3A80               	xorlw	128
  2303     0D1B  3E97               	addlw	151
  2304     0D1C  1803               	skipnc
  2305     0D1D  2D1F               	goto	u1711
  2306     0D1E  2D20               	goto	u1710
  2307     0D1F                     u1711:
  2308     0D1F  2D21               	goto	l1409
  2309     0D20                     u1710:
  2310     0D20  2CE4               	goto	l1389
  2311     0D21                     l1409:
  2312     0D21  3001               	movlw	1
  2313     0D22                     u1725:
  2314     0D22  1003               	clrc
  2315     0D23  1283               	bcf	3,5	;RP0=0, select bank0
  2316     0D24  1303               	bcf	3,6	;RP1=0, select bank0
  2317     0D25  0CEB               	rrf	___fltol@f1+3,f
  2318     0D26  0CEA               	rrf	___fltol@f1+2,f
  2319     0D27  0CE9               	rrf	___fltol@f1+1,f
  2320     0D28  0CE8               	rrf	___fltol@f1,f
  2321     0D29  3EFF               	addlw	-1
  2322     0D2A  1D03               	skipz
  2323     0D2B  2D22               	goto	u1725
  2324     0D2C  3001               	movlw	1
  2325     0D2D  1683               	bsf	3,5	;RP0=1, select bank1
  2326     0D2E  1303               	bcf	3,6	;RP1=0, select bank1
  2327     0D2F  07A1               	addwf	___fltol@exp1^(0+128),f
  2328     0D30  1D03               	btfss	3,2
  2329     0D31  2D33               	goto	u1731
  2330     0D32  2D34               	goto	u1730
  2331     0D33                     u1731:
  2332     0D33  2D21               	goto	l1409
  2333     0D34                     u1730:
  2334     0D34  2D50               	goto	l1419
  2335     0D35                     l1411:
  2336     0D35  3020               	movlw	32
  2337     0D36  0221               	subwf	___fltol@exp1^(0+128),w
  2338     0D37  1C03               	skipc
  2339     0D38  2D3A               	goto	u1741
  2340     0D39  2D3B               	goto	u1740
  2341     0D3A                     u1741:
  2342     0D3A  2D4B               	goto	l410
  2343     0D3B                     u1740:
  2344     0D3B  2CE4               	goto	l1389
  2345     0D3C                     l1417:
  2346     0D3C  3001               	movlw	1
  2347     0D3D  1283               	bcf	3,5	;RP0=0, select bank0
  2348     0D3E  1303               	bcf	3,6	;RP1=0, select bank0
  2349     0D3F  00EC               	movwf	??___fltol
  2350     0D40                     u1755:
  2351     0D40  1003               	clrc
  2352     0D41  0DE8               	rlf	___fltol@f1,f
  2353     0D42  0DE9               	rlf	___fltol@f1+1,f
  2354     0D43  0DEA               	rlf	___fltol@f1+2,f
  2355     0D44  0DEB               	rlf	___fltol@f1+3,f
  2356     0D45  0BEC               	decfsz	??___fltol,f
  2357     0D46  2D40               	goto	u1755
  2358     0D47  3001               	movlw	1
  2359     0D48  1683               	bsf	3,5	;RP0=1, select bank1
  2360     0D49  1303               	bcf	3,6	;RP1=0, select bank1
  2361     0D4A  02A1               	subwf	___fltol@exp1^(0+128),f
  2362     0D4B                     l410:
  2363     0D4B  0821               	movf	___fltol@exp1^(0+128),w
  2364     0D4C  1D03               	btfss	3,2
  2365     0D4D  2D4F               	goto	u1761
  2366     0D4E  2D50               	goto	u1760
  2367     0D4F                     u1761:
  2368     0D4F  2D3C               	goto	l1417
  2369     0D50                     u1760:
  2370     0D50                     l1419:
  2371     0D50  0820               	movf	___fltol@sign1^(0+128),w
  2372     0D51  1903               	btfsc	3,2
  2373     0D52  2D54               	goto	u1771
  2374     0D53  2D55               	goto	u1770
  2375     0D54                     u1771:
  2376     0D54  2D62               	goto	l413
  2377     0D55                     u1770:
  2378     0D55                     l1421:
  2379     0D55  1283               	bcf	3,5	;RP0=0, select bank0
  2380     0D56  1303               	bcf	3,6	;RP1=0, select bank0
  2381     0D57  09E8               	comf	___fltol@f1,f
  2382     0D58  09E9               	comf	___fltol@f1+1,f
  2383     0D59  09EA               	comf	___fltol@f1+2,f
  2384     0D5A  09EB               	comf	___fltol@f1+3,f
  2385     0D5B  0AE8               	incf	___fltol@f1,f
  2386     0D5C  1903               	skipnz
  2387     0D5D  0AE9               	incf	___fltol@f1+1,f
  2388     0D5E  1903               	skipnz
  2389     0D5F  0AEA               	incf	___fltol@f1+2,f
  2390     0D60  1903               	skipnz
  2391     0D61  0AEB               	incf	___fltol@f1+3,f
  2392     0D62                     l413:
  2393     0D62                     l403:
  2394     0D62  0008               	return
  2395     0D63                     __end_of___fltol:
  2396                           
  2397                           	psect	text8
  2398     0495                     __ptext8:	
  2399 ;; *************** function ___flmul *****************
  2400 ;; Defined at:
  2401 ;;		line 8 in file "C:\Program Files\Microchip\xc8\v3.00\pic\sources\c99\common\sprcmul.c"
  2402 ;; Parameters:    Size  Location     Type
  2403 ;;  b               4   26[BANK0 ] long 
  2404 ;;  a               4   30[BANK0 ] long 
  2405 ;; Auto vars:     Size  Location     Type
  2406 ;;  prod            4   46[BANK0 ] struct .
  2407 ;;  grs             4   40[BANK0 ] unsigned long 
  2408 ;;  temp            2   50[BANK0 ] struct .
  2409 ;;  bexp            1   45[BANK0 ] unsigned char 
  2410 ;;  aexp            1   44[BANK0 ] unsigned char 
  2411 ;;  sign            1   39[BANK0 ] unsigned char 
  2412 ;; Return value:  Size  Location     Type
  2413 ;;                  4   26[BANK0 ] unsigned char 
  2414 ;; Registers used:
  2415 ;;		wreg, status,2, status,0, btemp+1, pclath, cstack
  2416 ;; Tracked objects:
  2417 ;;		On entry : 0/0
  2418 ;;		On exit  : 0/0
  2419 ;;		Unchanged: 0/0
  2420 ;; Data sizes:     COMMON   BANK0   BANK1   BANK3   BANK2
  2421 ;;      Params:         0       8       0       0       0
  2422 ;;      Locals:         0      13       0       0       0
  2423 ;;      Temps:          0       5       0       0       0
  2424 ;;      Totals:         0      26       0       0       0
  2425 ;;Total ram usage:       26 bytes
  2426 ;; Hardware stack levels used: 1
  2427 ;; Hardware stack levels required when called: 1
  2428 ;; This function calls:
  2429 ;;		__Umul8_16
  2430 ;; This function is called by:
  2431 ;;		_Scale_Display
  2432 ;; This function uses a non-reentrant model
  2433 ;;
  2434                           
  2435     0495                     ___flmul:	
  2436                           ;psect for function ___flmul
  2437                           
  2438     0495                     l1813:	
  2439                           ;incstack = 0
  2440                           ; Regs used in ___flmul: [wreg+status,2+status,0+btemp+1+pclath+cstack]
  2441                           
  2442     0495  1283               	bcf	3,5	;RP0=0, select bank0
  2443     0496  1303               	bcf	3,6	;RP1=0, select bank0
  2444     0497  083D               	movf	___flmul@b+3,w
  2445     0498  00C7               	movwf	___flmul@sign
  2446     0499                     l1815:
  2447     0499  3080               	movlw	128
  2448     049A  05C7               	andwf	___flmul@sign,f
  2449     049B                     l1817:
  2450     049B  083D               	movf	___flmul@b+3,w
  2451     049C  00C2               	movwf	??___flmul
  2452     049D  0742               	addwf	??___flmul,w
  2453     049E  00CD               	movwf	___flmul@bexp
  2454     049F                     l1819:
  2455     049F  1FBC               	btfss	___flmul@b+2,7
  2456     04A0  2CA2               	goto	u2661
  2457     04A1  2CA3               	goto	u2660
  2458     04A2                     u2661:
  2459     04A2  2CA4               	goto	l1823
  2460     04A3                     u2660:
  2461     04A3                     l1821:
  2462     04A3  144D               	bsf	___flmul@bexp,0
  2463     04A4                     l1823:
  2464     04A4  084D               	movf	___flmul@bexp,w
  2465     04A5  1903               	btfsc	3,2
  2466     04A6  2CA8               	goto	u2671
  2467     04A7  2CA9               	goto	u2670
  2468     04A8                     u2671:
  2469     04A8  2CB8               	goto	l1831
  2470     04A9                     u2670:
  2471     04A9                     l1825:
  2472     04A9  0A4D               	incf	___flmul@bexp,w
  2473     04AA  1D03               	btfss	3,2
  2474     04AB  2CAD               	goto	u2681
  2475     04AC  2CAE               	goto	u2680
  2476     04AD                     u2681:
  2477     04AD  2CB6               	goto	l1829
  2478     04AE                     u2680:
  2479     04AE                     l1827:
  2480     04AE  3000               	movlw	0
  2481     04AF  00BD               	movwf	___flmul@b+3
  2482     04B0  3000               	movlw	0
  2483     04B1  00BC               	movwf	___flmul@b+2
  2484     04B2  3000               	movlw	0
  2485     04B3  00BB               	movwf	___flmul@b+1
  2486     04B4  3000               	movlw	0
  2487     04B5  00BA               	movwf	___flmul@b
  2488     04B6                     l1829:
  2489     04B6  17BC               	bsf	___flmul@b+2,7
  2490     04B7  2CC0               	goto	l1833
  2491     04B8                     l1831:
  2492     04B8  3000               	movlw	0
  2493     04B9  00BD               	movwf	___flmul@b+3
  2494     04BA  3000               	movlw	0
  2495     04BB  00BC               	movwf	___flmul@b+2
  2496     04BC  3000               	movlw	0
  2497     04BD  00BB               	movwf	___flmul@b+1
  2498     04BE  3000               	movlw	0
  2499     04BF  00BA               	movwf	___flmul@b
  2500     04C0                     l1833:
  2501     04C0  0841               	movf	___flmul@a+3,w
  2502     04C1  3980               	andlw	128
  2503     04C2  06C7               	xorwf	___flmul@sign,f
  2504     04C3                     l1835:
  2505     04C3  0841               	movf	___flmul@a+3,w
  2506     04C4  00C2               	movwf	??___flmul
  2507     04C5  0742               	addwf	??___flmul,w
  2508     04C6  00CC               	movwf	___flmul@aexp
  2509     04C7                     l1837:
  2510     04C7  1FC0               	btfss	___flmul@a+2,7
  2511     04C8  2CCA               	goto	u2691
  2512     04C9  2CCB               	goto	u2690
  2513     04CA                     u2691:
  2514     04CA  2CCC               	goto	l1841
  2515     04CB                     u2690:
  2516     04CB                     l1839:
  2517     04CB  144C               	bsf	___flmul@aexp,0
  2518     04CC                     l1841:
  2519     04CC  084C               	movf	___flmul@aexp,w
  2520     04CD  1903               	btfsc	3,2
  2521     04CE  2CD0               	goto	u2701
  2522     04CF  2CD1               	goto	u2700
  2523     04D0                     u2701:
  2524     04D0  2CE0               	goto	l1849
  2525     04D1                     u2700:
  2526     04D1                     l1843:
  2527     04D1  0A4C               	incf	___flmul@aexp,w
  2528     04D2  1D03               	btfss	3,2
  2529     04D3  2CD5               	goto	u2711
  2530     04D4  2CD6               	goto	u2710
  2531     04D5                     u2711:
  2532     04D5  2CDE               	goto	l1847
  2533     04D6                     u2710:
  2534     04D6                     l1845:
  2535     04D6  3000               	movlw	0
  2536     04D7  00C1               	movwf	___flmul@a+3
  2537     04D8  3000               	movlw	0
  2538     04D9  00C0               	movwf	___flmul@a+2
  2539     04DA  3000               	movlw	0
  2540     04DB  00BF               	movwf	___flmul@a+1
  2541     04DC  3000               	movlw	0
  2542     04DD  00BE               	movwf	___flmul@a
  2543     04DE                     l1847:
  2544     04DE  17C0               	bsf	___flmul@a+2,7
  2545     04DF  2CE8               	goto	l1851
  2546     04E0                     l1849:
  2547     04E0  3000               	movlw	0
  2548     04E1  00C1               	movwf	___flmul@a+3
  2549     04E2  3000               	movlw	0
  2550     04E3  00C0               	movwf	___flmul@a+2
  2551     04E4  3000               	movlw	0
  2552     04E5  00BF               	movwf	___flmul@a+1
  2553     04E6  3000               	movlw	0
  2554     04E7  00BE               	movwf	___flmul@a
  2555     04E8                     l1851:
  2556     04E8  084C               	movf	___flmul@aexp,w
  2557     04E9  1903               	btfsc	3,2
  2558     04EA  2CEC               	goto	u2721
  2559     04EB  2CED               	goto	u2720
  2560     04EC                     u2721:
  2561     04EC  2CF2               	goto	l1855
  2562     04ED                     u2720:
  2563     04ED                     l1853:
  2564     04ED  084D               	movf	___flmul@bexp,w
  2565     04EE  1D03               	btfss	3,2
  2566     04EF  2CF1               	goto	u2731
  2567     04F0  2CF2               	goto	u2730
  2568     04F1                     u2731:
  2569     04F1  2CFB               	goto	l1859
  2570     04F2                     u2730:
  2571     04F2                     l1855:
  2572     04F2  3000               	movlw	0
  2573     04F3  00BD               	movwf	?___flmul+3
  2574     04F4  3000               	movlw	0
  2575     04F5  00BC               	movwf	?___flmul+2
  2576     04F6  3000               	movlw	0
  2577     04F7  00BB               	movwf	?___flmul+1
  2578     04F8  3000               	movlw	0
  2579     04F9  00BA               	movwf	?___flmul
  2580     04FA  2FD6               	goto	l606
  2581     04FB                     l1859:
  2582     04FB  083A               	movf	___flmul@b,w
  2583     04FC  00F0               	movwf	__Umul8_16@multiplicand
  2584     04FD  0840               	movf	___flmul@a+2,w
  2585     04FE  120A  158A  23F4  120A  118A  	fcall	__Umul8_16
  2586     0503  0871               	movf	?__Umul8_16+1,w
  2587     0504  1283               	bcf	3,5	;RP0=0, select bank0
  2588     0505  1303               	bcf	3,6	;RP1=0, select bank0
  2589     0506  00D3               	movwf	___flmul@temp+1
  2590     0507  0870               	movf	?__Umul8_16,w
  2591     0508  00D2               	movwf	___flmul@temp
  2592     0509                     l1861:
  2593     0509  0852               	movf	___flmul@temp,w
  2594     050A  00C2               	movwf	??___flmul
  2595     050B  01C3               	clrf	??___flmul+1
  2596     050C  01C4               	clrf	??___flmul+2
  2597     050D  01C5               	clrf	??___flmul+3
  2598     050E  0845               	movf	??___flmul+3,w
  2599     050F  00CB               	movwf	___flmul@grs+3
  2600     0510  0844               	movf	??___flmul+2,w
  2601     0511  00CA               	movwf	___flmul@grs+2
  2602     0512  0843               	movf	??___flmul+1,w
  2603     0513  00C9               	movwf	___flmul@grs+1
  2604     0514  0842               	movf	??___flmul,w
  2605     0515  00C8               	movwf	___flmul@grs
  2606     0516                     l1863:
  2607     0516  0853               	movf	___flmul@temp+1,w
  2608     0517  00C2               	movwf	??___flmul
  2609     0518  01C3               	clrf	??___flmul+1
  2610     0519  01C4               	clrf	??___flmul+2
  2611     051A  01C5               	clrf	??___flmul+3
  2612     051B  0845               	movf	??___flmul+3,w
  2613     051C  00D1               	movwf	___flmul@prod+3
  2614     051D  0844               	movf	??___flmul+2,w
  2615     051E  00D0               	movwf	___flmul@prod+2
  2616     051F  0843               	movf	??___flmul+1,w
  2617     0520  00CF               	movwf	___flmul@prod+1
  2618     0521  0842               	movf	??___flmul,w
  2619     0522  00CE               	movwf	___flmul@prod
  2620     0523  083B               	movf	___flmul@b+1,w
  2621     0524  00F0               	movwf	__Umul8_16@multiplicand
  2622     0525  083F               	movf	___flmul@a+1,w
  2623     0526  120A  158A  23F4  120A  118A  	fcall	__Umul8_16
  2624     052B  0871               	movf	?__Umul8_16+1,w
  2625     052C  1283               	bcf	3,5	;RP0=0, select bank0
  2626     052D  1303               	bcf	3,6	;RP1=0, select bank0
  2627     052E  00D3               	movwf	___flmul@temp+1
  2628     052F  0870               	movf	?__Umul8_16,w
  2629     0530  00D2               	movwf	___flmul@temp
  2630     0531                     l1865:
  2631     0531  0852               	movf	___flmul@temp,w
  2632     0532  00C2               	movwf	??___flmul
  2633     0533  01C3               	clrf	??___flmul+1
  2634     0534  01C4               	clrf	??___flmul+2
  2635     0535  01C5               	clrf	??___flmul+3
  2636     0536  0842               	movf	??___flmul,w
  2637     0537  07C8               	addwf	___flmul@grs,f
  2638     0538  0843               	movf	??___flmul+1,w
  2639     0539  1103               	clrz
  2640     053A  1803               	skipnc
  2641     053B  3E01               	addlw	1
  2642     053C  1903               	skipnz
  2643     053D  2D3F               	goto	u2741
  2644     053E  07C9               	addwf	___flmul@grs+1,f
  2645     053F                     u2741:
  2646     053F  0844               	movf	??___flmul+2,w
  2647     0540  1103               	clrz
  2648     0541  1803               	skipnc
  2649     0542  3E01               	addlw	1
  2650     0543  1903               	skipnz
  2651     0544  2D46               	goto	u2742
  2652     0545  07CA               	addwf	___flmul@grs+2,f
  2653     0546                     u2742:
  2654     0546  0845               	movf	??___flmul+3,w
  2655     0547  1103               	clrz
  2656     0548  1803               	skipnc
  2657     0549  3E01               	addlw	1
  2658     054A  1903               	skipnz
  2659     054B  2D4D               	goto	u2743
  2660     054C  07CB               	addwf	___flmul@grs+3,f
  2661     054D                     u2743:
  2662     054D                     l1867:
  2663     054D  0853               	movf	___flmul@temp+1,w
  2664     054E  00C2               	movwf	??___flmul
  2665     054F  01C3               	clrf	??___flmul+1
  2666     0550  01C4               	clrf	??___flmul+2
  2667     0551  01C5               	clrf	??___flmul+3
  2668     0552  0842               	movf	??___flmul,w
  2669     0553  07CE               	addwf	___flmul@prod,f
  2670     0554  0843               	movf	??___flmul+1,w
  2671     0555  1103               	clrz
  2672     0556  1803               	skipnc
  2673     0557  3E01               	addlw	1
  2674     0558  1903               	skipnz
  2675     0559  2D5B               	goto	u2751
  2676     055A  07CF               	addwf	___flmul@prod+1,f
  2677     055B                     u2751:
  2678     055B  0844               	movf	??___flmul+2,w
  2679     055C  1103               	clrz
  2680     055D  1803               	skipnc
  2681     055E  3E01               	addlw	1
  2682     055F  1903               	skipnz
  2683     0560  2D62               	goto	u2752
  2684     0561  07D0               	addwf	___flmul@prod+2,f
  2685     0562                     u2752:
  2686     0562  0845               	movf	??___flmul+3,w
  2687     0563  1103               	clrz
  2688     0564  1803               	skipnc
  2689     0565  3E01               	addlw	1
  2690     0566  1903               	skipnz
  2691     0567  2D69               	goto	u2753
  2692     0568  07D1               	addwf	___flmul@prod+3,f
  2693     0569                     u2753:
  2694     0569  083C               	movf	___flmul@b+2,w
  2695     056A  00F0               	movwf	__Umul8_16@multiplicand
  2696     056B  083E               	movf	___flmul@a,w
  2697     056C  120A  158A  23F4  120A  118A  	fcall	__Umul8_16
  2698     0571  0871               	movf	?__Umul8_16+1,w
  2699     0572  1283               	bcf	3,5	;RP0=0, select bank0
  2700     0573  1303               	bcf	3,6	;RP1=0, select bank0
  2701     0574  00D3               	movwf	___flmul@temp+1
  2702     0575  0870               	movf	?__Umul8_16,w
  2703     0576  00D2               	movwf	___flmul@temp
  2704     0577                     l1869:
  2705     0577  0852               	movf	___flmul@temp,w
  2706     0578  00C2               	movwf	??___flmul
  2707     0579  01C3               	clrf	??___flmul+1
  2708     057A  01C4               	clrf	??___flmul+2
  2709     057B  01C5               	clrf	??___flmul+3
  2710     057C  0842               	movf	??___flmul,w
  2711     057D  07C8               	addwf	___flmul@grs,f
  2712     057E  0843               	movf	??___flmul+1,w
  2713     057F  1103               	clrz
  2714     0580  1803               	skipnc
  2715     0581  3E01               	addlw	1
  2716     0582  1903               	skipnz
  2717     0583  2D85               	goto	u2761
  2718     0584  07C9               	addwf	___flmul@grs+1,f
  2719     0585                     u2761:
  2720     0585  0844               	movf	??___flmul+2,w
  2721     0586  1103               	clrz
  2722     0587  1803               	skipnc
  2723     0588  3E01               	addlw	1
  2724     0589  1903               	skipnz
  2725     058A  2D8C               	goto	u2762
  2726     058B  07CA               	addwf	___flmul@grs+2,f
  2727     058C                     u2762:
  2728     058C  0845               	movf	??___flmul+3,w
  2729     058D  1103               	clrz
  2730     058E  1803               	skipnc
  2731     058F  3E01               	addlw	1
  2732     0590  1903               	skipnz
  2733     0591  2D93               	goto	u2763
  2734     0592  07CB               	addwf	___flmul@grs+3,f
  2735     0593                     u2763:
  2736     0593                     l1871:
  2737     0593  0853               	movf	___flmul@temp+1,w
  2738     0594  00C2               	movwf	??___flmul
  2739     0595  01C3               	clrf	??___flmul+1
  2740     0596  01C4               	clrf	??___flmul+2
  2741     0597  01C5               	clrf	??___flmul+3
  2742     0598  0842               	movf	??___flmul,w
  2743     0599  07CE               	addwf	___flmul@prod,f
  2744     059A  0843               	movf	??___flmul+1,w
  2745     059B  1103               	clrz
  2746     059C  1803               	skipnc
  2747     059D  3E01               	addlw	1
  2748     059E  1903               	skipnz
  2749     059F  2DA1               	goto	u2771
  2750     05A0  07CF               	addwf	___flmul@prod+1,f
  2751     05A1                     u2771:
  2752     05A1  0844               	movf	??___flmul+2,w
  2753     05A2  1103               	clrz
  2754     05A3  1803               	skipnc
  2755     05A4  3E01               	addlw	1
  2756     05A5  1903               	skipnz
  2757     05A6  2DA8               	goto	u2772
  2758     05A7  07D0               	addwf	___flmul@prod+2,f
  2759     05A8                     u2772:
  2760     05A8  0845               	movf	??___flmul+3,w
  2761     05A9  1103               	clrz
  2762     05AA  1803               	skipnc
  2763     05AB  3E01               	addlw	1
  2764     05AC  1903               	skipnz
  2765     05AD  2DAF               	goto	u2773
  2766     05AE  07D1               	addwf	___flmul@prod+3,f
  2767     05AF                     u2773:
  2768     05AF                     l1873:
  2769     05AF  3008               	movlw	8
  2770     05B0  00C2               	movwf	??___flmul
  2771     05B1                     u2785:
  2772     05B1  1003               	clrc
  2773     05B2  0DC8               	rlf	___flmul@grs,f
  2774     05B3  0DC9               	rlf	___flmul@grs+1,f
  2775     05B4  0DCA               	rlf	___flmul@grs+2,f
  2776     05B5  0DCB               	rlf	___flmul@grs+3,f
  2777     05B6  0BC2               	decfsz	??___flmul,f
  2778     05B7  2DB1               	goto	u2785
  2779     05B8                     l1875:
  2780     05B8  083B               	movf	___flmul@b+1,w
  2781     05B9  00F0               	movwf	__Umul8_16@multiplicand
  2782     05BA  083E               	movf	___flmul@a,w
  2783     05BB  120A  158A  23F4  120A  118A  	fcall	__Umul8_16
  2784     05C0  0871               	movf	?__Umul8_16+1,w
  2785     05C1  1283               	bcf	3,5	;RP0=0, select bank0
  2786     05C2  1303               	bcf	3,6	;RP1=0, select bank0
  2787     05C3  00D3               	movwf	___flmul@temp+1
  2788     05C4  0870               	movf	?__Umul8_16,w
  2789     05C5  00D2               	movwf	___flmul@temp
  2790     05C6                     l1877:
  2791     05C6  0852               	movf	___flmul@temp,w
  2792     05C7  00C2               	movwf	??___flmul
  2793     05C8  0853               	movf	___flmul@temp+1,w
  2794     05C9  00C3               	movwf	??___flmul+1
  2795     05CA  01C4               	clrf	??___flmul+2
  2796     05CB  01C5               	clrf	??___flmul+3
  2797     05CC  0842               	movf	??___flmul,w
  2798     05CD  07C8               	addwf	___flmul@grs,f
  2799     05CE  0843               	movf	??___flmul+1,w
  2800     05CF  1103               	clrz
  2801     05D0  1803               	skipnc
  2802     05D1  3E01               	addlw	1
  2803     05D2  1903               	skipnz
  2804     05D3  2DD5               	goto	u2791
  2805     05D4  07C9               	addwf	___flmul@grs+1,f
  2806     05D5                     u2791:
  2807     05D5  0844               	movf	??___flmul+2,w
  2808     05D6  1103               	clrz
  2809     05D7  1803               	skipnc
  2810     05D8  3E01               	addlw	1
  2811     05D9  1903               	skipnz
  2812     05DA  2DDC               	goto	u2792
  2813     05DB  07CA               	addwf	___flmul@grs+2,f
  2814     05DC                     u2792:
  2815     05DC  0845               	movf	??___flmul+3,w
  2816     05DD  1103               	clrz
  2817     05DE  1803               	skipnc
  2818     05DF  3E01               	addlw	1
  2819     05E0  1903               	skipnz
  2820     05E1  2DE3               	goto	u2793
  2821     05E2  07CB               	addwf	___flmul@grs+3,f
  2822     05E3                     u2793:
  2823     05E3                     l1879:
  2824     05E3  083A               	movf	___flmul@b,w
  2825     05E4  00F0               	movwf	__Umul8_16@multiplicand
  2826     05E5  083F               	movf	___flmul@a+1,w
  2827     05E6  120A  158A  23F4  120A  118A  	fcall	__Umul8_16
  2828     05EB  0871               	movf	?__Umul8_16+1,w
  2829     05EC  1283               	bcf	3,5	;RP0=0, select bank0
  2830     05ED  1303               	bcf	3,6	;RP1=0, select bank0
  2831     05EE  00D3               	movwf	___flmul@temp+1
  2832     05EF  0870               	movf	?__Umul8_16,w
  2833     05F0  00D2               	movwf	___flmul@temp
  2834     05F1                     l1881:
  2835     05F1  0852               	movf	___flmul@temp,w
  2836     05F2  00C2               	movwf	??___flmul
  2837     05F3  0853               	movf	___flmul@temp+1,w
  2838     05F4  00C3               	movwf	??___flmul+1
  2839     05F5  01C4               	clrf	??___flmul+2
  2840     05F6  01C5               	clrf	??___flmul+3
  2841     05F7  0842               	movf	??___flmul,w
  2842     05F8  07C8               	addwf	___flmul@grs,f
  2843     05F9  0843               	movf	??___flmul+1,w
  2844     05FA  1103               	clrz
  2845     05FB  1803               	skipnc
  2846     05FC  3E01               	addlw	1
  2847     05FD  1903               	skipnz
  2848     05FE  2E00               	goto	u2801
  2849     05FF  07C9               	addwf	___flmul@grs+1,f
  2850     0600                     u2801:
  2851     0600  0844               	movf	??___flmul+2,w
  2852     0601  1103               	clrz
  2853     0602  1803               	skipnc
  2854     0603  3E01               	addlw	1
  2855     0604  1903               	skipnz
  2856     0605  2E07               	goto	u2802
  2857     0606  07CA               	addwf	___flmul@grs+2,f
  2858     0607                     u2802:
  2859     0607  0845               	movf	??___flmul+3,w
  2860     0608  1103               	clrz
  2861     0609  1803               	skipnc
  2862     060A  3E01               	addlw	1
  2863     060B  1903               	skipnz
  2864     060C  2E0E               	goto	u2803
  2865     060D  07CB               	addwf	___flmul@grs+3,f
  2866     060E                     u2803:
  2867     060E                     l1883:
  2868     060E  3008               	movlw	8
  2869     060F  00C2               	movwf	??___flmul
  2870     0610                     u2815:
  2871     0610  1003               	clrc
  2872     0611  0DC8               	rlf	___flmul@grs,f
  2873     0612  0DC9               	rlf	___flmul@grs+1,f
  2874     0613  0DCA               	rlf	___flmul@grs+2,f
  2875     0614  0DCB               	rlf	___flmul@grs+3,f
  2876     0615  0BC2               	decfsz	??___flmul,f
  2877     0616  2E10               	goto	u2815
  2878     0617  083A               	movf	___flmul@b,w
  2879     0618  00F0               	movwf	__Umul8_16@multiplicand
  2880     0619  083E               	movf	___flmul@a,w
  2881     061A  120A  158A  23F4  120A  118A  	fcall	__Umul8_16
  2882     061F  0871               	movf	?__Umul8_16+1,w
  2883     0620  1283               	bcf	3,5	;RP0=0, select bank0
  2884     0621  1303               	bcf	3,6	;RP1=0, select bank0
  2885     0622  00D3               	movwf	___flmul@temp+1
  2886     0623  0870               	movf	?__Umul8_16,w
  2887     0624  00D2               	movwf	___flmul@temp
  2888     0625                     l1885:
  2889     0625  0852               	movf	___flmul@temp,w
  2890     0626  00C2               	movwf	??___flmul
  2891     0627  0853               	movf	___flmul@temp+1,w
  2892     0628  00C3               	movwf	??___flmul+1
  2893     0629  01C4               	clrf	??___flmul+2
  2894     062A  01C5               	clrf	??___flmul+3
  2895     062B  0842               	movf	??___flmul,w
  2896     062C  07C8               	addwf	___flmul@grs,f
  2897     062D  0843               	movf	??___flmul+1,w
  2898     062E  1103               	clrz
  2899     062F  1803               	skipnc
  2900     0630  3E01               	addlw	1
  2901     0631  1903               	skipnz
  2902     0632  2E34               	goto	u2821
  2903     0633  07C9               	addwf	___flmul@grs+1,f
  2904     0634                     u2821:
  2905     0634  0844               	movf	??___flmul+2,w
  2906     0635  1103               	clrz
  2907     0636  1803               	skipnc
  2908     0637  3E01               	addlw	1
  2909     0638  1903               	skipnz
  2910     0639  2E3B               	goto	u2822
  2911     063A  07CA               	addwf	___flmul@grs+2,f
  2912     063B                     u2822:
  2913     063B  0845               	movf	??___flmul+3,w
  2914     063C  1103               	clrz
  2915     063D  1803               	skipnc
  2916     063E  3E01               	addlw	1
  2917     063F  1903               	skipnz
  2918     0640  2E42               	goto	u2823
  2919     0641  07CB               	addwf	___flmul@grs+3,f
  2920     0642                     u2823:
  2921     0642                     l1887:
  2922     0642  083B               	movf	___flmul@b+1,w
  2923     0643  00F0               	movwf	__Umul8_16@multiplicand
  2924     0644  0840               	movf	___flmul@a+2,w
  2925     0645  120A  158A  23F4  120A  118A  	fcall	__Umul8_16
  2926     064A  0871               	movf	?__Umul8_16+1,w
  2927     064B  1283               	bcf	3,5	;RP0=0, select bank0
  2928     064C  1303               	bcf	3,6	;RP1=0, select bank0
  2929     064D  00D3               	movwf	___flmul@temp+1
  2930     064E  0870               	movf	?__Umul8_16,w
  2931     064F  00D2               	movwf	___flmul@temp
  2932     0650  0852               	movf	___flmul@temp,w
  2933     0651  00C2               	movwf	??___flmul
  2934     0652  0853               	movf	___flmul@temp+1,w
  2935     0653  00C3               	movwf	??___flmul+1
  2936     0654  01C4               	clrf	??___flmul+2
  2937     0655  01C5               	clrf	??___flmul+3
  2938     0656  0842               	movf	??___flmul,w
  2939     0657  07CE               	addwf	___flmul@prod,f
  2940     0658  0843               	movf	??___flmul+1,w
  2941     0659  1103               	clrz
  2942     065A  1803               	skipnc
  2943     065B  3E01               	addlw	1
  2944     065C  1903               	skipnz
  2945     065D  2E5F               	goto	u2831
  2946     065E  07CF               	addwf	___flmul@prod+1,f
  2947     065F                     u2831:
  2948     065F  0844               	movf	??___flmul+2,w
  2949     0660  1103               	clrz
  2950     0661  1803               	skipnc
  2951     0662  3E01               	addlw	1
  2952     0663  1903               	skipnz
  2953     0664  2E66               	goto	u2832
  2954     0665  07D0               	addwf	___flmul@prod+2,f
  2955     0666                     u2832:
  2956     0666  0845               	movf	??___flmul+3,w
  2957     0667  1103               	clrz
  2958     0668  1803               	skipnc
  2959     0669  3E01               	addlw	1
  2960     066A  1903               	skipnz
  2961     066B  2E6D               	goto	u2833
  2962     066C  07D1               	addwf	___flmul@prod+3,f
  2963     066D                     u2833:
  2964     066D                     l1889:
  2965     066D  083C               	movf	___flmul@b+2,w
  2966     066E  00F0               	movwf	__Umul8_16@multiplicand
  2967     066F  083F               	movf	___flmul@a+1,w
  2968     0670  120A  158A  23F4  120A  118A  	fcall	__Umul8_16
  2969     0675  0871               	movf	?__Umul8_16+1,w
  2970     0676  1283               	bcf	3,5	;RP0=0, select bank0
  2971     0677  1303               	bcf	3,6	;RP1=0, select bank0
  2972     0678  00D3               	movwf	___flmul@temp+1
  2973     0679  0870               	movf	?__Umul8_16,w
  2974     067A  00D2               	movwf	___flmul@temp
  2975     067B                     l1891:
  2976     067B  0852               	movf	___flmul@temp,w
  2977     067C  00C2               	movwf	??___flmul
  2978     067D  0853               	movf	___flmul@temp+1,w
  2979     067E  00C3               	movwf	??___flmul+1
  2980     067F  01C4               	clrf	??___flmul+2
  2981     0680  01C5               	clrf	??___flmul+3
  2982     0681  0842               	movf	??___flmul,w
  2983     0682  07CE               	addwf	___flmul@prod,f
  2984     0683  0843               	movf	??___flmul+1,w
  2985     0684  1103               	clrz
  2986     0685  1803               	skipnc
  2987     0686  3E01               	addlw	1
  2988     0687  1903               	skipnz
  2989     0688  2E8A               	goto	u2841
  2990     0689  07CF               	addwf	___flmul@prod+1,f
  2991     068A                     u2841:
  2992     068A  0844               	movf	??___flmul+2,w
  2993     068B  1103               	clrz
  2994     068C  1803               	skipnc
  2995     068D  3E01               	addlw	1
  2996     068E  1903               	skipnz
  2997     068F  2E91               	goto	u2842
  2998     0690  07D0               	addwf	___flmul@prod+2,f
  2999     0691                     u2842:
  3000     0691  0845               	movf	??___flmul+3,w
  3001     0692  1103               	clrz
  3002     0693  1803               	skipnc
  3003     0694  3E01               	addlw	1
  3004     0695  1903               	skipnz
  3005     0696  2E98               	goto	u2843
  3006     0697  07D1               	addwf	___flmul@prod+3,f
  3007     0698                     u2843:
  3008     0698  083C               	movf	___flmul@b+2,w
  3009     0699  00F0               	movwf	__Umul8_16@multiplicand
  3010     069A  0840               	movf	___flmul@a+2,w
  3011     069B  120A  158A  23F4  120A  118A  	fcall	__Umul8_16
  3012     06A0  0871               	movf	?__Umul8_16+1,w
  3013     06A1  1283               	bcf	3,5	;RP0=0, select bank0
  3014     06A2  1303               	bcf	3,6	;RP1=0, select bank0
  3015     06A3  00D3               	movwf	___flmul@temp+1
  3016     06A4  0870               	movf	?__Umul8_16,w
  3017     06A5  00D2               	movwf	___flmul@temp
  3018     06A6                     l1893:
  3019     06A6  0852               	movf	___flmul@temp,w
  3020     06A7  00C2               	movwf	??___flmul
  3021     06A8  0853               	movf	___flmul@temp+1,w
  3022     06A9  00C3               	movwf	??___flmul+1
  3023     06AA  01C4               	clrf	??___flmul+2
  3024     06AB  01C5               	clrf	??___flmul+3
  3025     06AC  3008               	movlw	8
  3026     06AD                     u2855:
  3027     06AD  1003               	clrc
  3028     06AE  0DC2               	rlf	??___flmul,f
  3029     06AF  0DC3               	rlf	??___flmul+1,f
  3030     06B0  0DC4               	rlf	??___flmul+2,f
  3031     06B1  0DC5               	rlf	??___flmul+3,f
  3032     06B2                     u2850:
  3033     06B2  3EFF               	addlw	-1
  3034     06B3  1D03               	skipz
  3035     06B4  2EAD               	goto	u2855
  3036     06B5  0842               	movf	??___flmul,w
  3037     06B6  07CE               	addwf	___flmul@prod,f
  3038     06B7  0843               	movf	??___flmul+1,w
  3039     06B8  1103               	clrz
  3040     06B9  1803               	skipnc
  3041     06BA  3E01               	addlw	1
  3042     06BB  1903               	skipnz
  3043     06BC  2EBE               	goto	u2861
  3044     06BD  07CF               	addwf	___flmul@prod+1,f
  3045     06BE                     u2861:
  3046     06BE  0844               	movf	??___flmul+2,w
  3047     06BF  1103               	clrz
  3048     06C0  1803               	skipnc
  3049     06C1  3E01               	addlw	1
  3050     06C2  1903               	skipnz
  3051     06C3  2EC5               	goto	u2862
  3052     06C4  07D0               	addwf	___flmul@prod+2,f
  3053     06C5                     u2862:
  3054     06C5  0845               	movf	??___flmul+3,w
  3055     06C6  1103               	clrz
  3056     06C7  1803               	skipnc
  3057     06C8  3E01               	addlw	1
  3058     06C9  1903               	skipnz
  3059     06CA  2ECC               	goto	u2863
  3060     06CB  07D1               	addwf	___flmul@prod+3,f
  3061     06CC                     u2863:
  3062     06CC                     l1895:
  3063     06CC  0848               	movf	___flmul@grs,w
  3064     06CD  00C2               	movwf	??___flmul
  3065     06CE  0849               	movf	___flmul@grs+1,w
  3066     06CF  00C3               	movwf	??___flmul+1
  3067     06D0  084A               	movf	___flmul@grs+2,w
  3068     06D1  00C4               	movwf	??___flmul+2
  3069     06D2  084B               	movf	___flmul@grs+3,w
  3070     06D3  00C5               	movwf	??___flmul+3
  3071     06D4  3018               	movlw	24
  3072     06D5                     u2875:
  3073     06D5  1003               	clrc
  3074     06D6  0CC5               	rrf	??___flmul+3,f
  3075     06D7  0CC4               	rrf	??___flmul+2,f
  3076     06D8  0CC3               	rrf	??___flmul+1,f
  3077     06D9  0CC2               	rrf	??___flmul,f
  3078     06DA                     u2870:
  3079     06DA  3EFF               	addlw	-1
  3080     06DB  1D03               	skipz
  3081     06DC  2ED5               	goto	u2875
  3082     06DD  0842               	movf	??___flmul,w
  3083     06DE  07CE               	addwf	___flmul@prod,f
  3084     06DF  0843               	movf	??___flmul+1,w
  3085     06E0  1103               	clrz
  3086     06E1  1803               	skipnc
  3087     06E2  3E01               	addlw	1
  3088     06E3  1903               	skipnz
  3089     06E4  2EE6               	goto	u2881
  3090     06E5  07CF               	addwf	___flmul@prod+1,f
  3091     06E6                     u2881:
  3092     06E6  0844               	movf	??___flmul+2,w
  3093     06E7  1103               	clrz
  3094     06E8  1803               	skipnc
  3095     06E9  3E01               	addlw	1
  3096     06EA  1903               	skipnz
  3097     06EB  2EED               	goto	u2882
  3098     06EC  07D0               	addwf	___flmul@prod+2,f
  3099     06ED                     u2882:
  3100     06ED  0845               	movf	??___flmul+3,w
  3101     06EE  1103               	clrz
  3102     06EF  1803               	skipnc
  3103     06F0  3E01               	addlw	1
  3104     06F1  1903               	skipnz
  3105     06F2  2EF4               	goto	u2883
  3106     06F3  07D1               	addwf	___flmul@prod+3,f
  3107     06F4                     u2883:
  3108     06F4                     l1897:
  3109     06F4  3008               	movlw	8
  3110     06F5  00C2               	movwf	??___flmul
  3111     06F6                     u2895:
  3112     06F6  1003               	clrc
  3113     06F7  0DC8               	rlf	___flmul@grs,f
  3114     06F8  0DC9               	rlf	___flmul@grs+1,f
  3115     06F9  0DCA               	rlf	___flmul@grs+2,f
  3116     06FA  0DCB               	rlf	___flmul@grs+3,f
  3117     06FB  0BC2               	decfsz	??___flmul,f
  3118     06FC  2EF6               	goto	u2895
  3119     06FD                     l1899:
  3120     06FD  084D               	movf	___flmul@bexp,w
  3121     06FE  074C               	addwf	___flmul@aexp,w
  3122     06FF  00C2               	movwf	??___flmul
  3123     0700  01C3               	clrf	??___flmul+1
  3124     0701  0DC3               	rlf	??___flmul+1,f
  3125     0702  0842               	movf	??___flmul,w
  3126     0703  3E82               	addlw	130
  3127     0704  00D2               	movwf	___flmul@temp
  3128     0705  0843               	movf	??___flmul+1,w
  3129     0706  1803               	skipnc
  3130     0707  3E01               	addlw	1
  3131     0708  3EFF               	addlw	255
  3132     0709  00D3               	movwf	___flmul@temp+1
  3133     070A  2F28               	goto	l1911
  3134     070B                     l1901:
  3135     070B  3001               	movlw	1
  3136     070C  00C2               	movwf	??___flmul
  3137     070D                     u2905:
  3138     070D  1003               	clrc
  3139     070E  0DCE               	rlf	___flmul@prod,f
  3140     070F  0DCF               	rlf	___flmul@prod+1,f
  3141     0710  0DD0               	rlf	___flmul@prod+2,f
  3142     0711  0DD1               	rlf	___flmul@prod+3,f
  3143     0712  0BC2               	decfsz	??___flmul,f
  3144     0713  2F0D               	goto	u2905
  3145     0714                     l1903:
  3146     0714  1FCB               	btfss	___flmul@grs+3,7
  3147     0715  2F17               	goto	u2911
  3148     0716  2F18               	goto	u2910
  3149     0717                     u2911:
  3150     0717  2F19               	goto	l1907
  3151     0718                     u2910:
  3152     0718                     l1905:
  3153     0718  144E               	bsf	___flmul@prod,0
  3154     0719                     l1907:
  3155     0719  3001               	movlw	1
  3156     071A  00C2               	movwf	??___flmul
  3157     071B                     u2925:
  3158     071B  1003               	clrc
  3159     071C  0DC8               	rlf	___flmul@grs,f
  3160     071D  0DC9               	rlf	___flmul@grs+1,f
  3161     071E  0DCA               	rlf	___flmul@grs+2,f
  3162     071F  0DCB               	rlf	___flmul@grs+3,f
  3163     0720  0BC2               	decfsz	??___flmul,f
  3164     0721  2F1B               	goto	u2925
  3165     0722                     l1909:
  3166     0722  30FF               	movlw	255
  3167     0723  07D2               	addwf	___flmul@temp,f
  3168     0724  1803               	skipnc
  3169     0725  0AD3               	incf	___flmul@temp+1,f
  3170     0726  30FF               	movlw	255
  3171     0727  07D3               	addwf	___flmul@temp+1,f
  3172     0728                     l1911:
  3173     0728  1FD0               	btfss	___flmul@prod+2,7
  3174     0729  2F2B               	goto	u2931
  3175     072A  2F2C               	goto	u2930
  3176     072B                     u2931:
  3177     072B  2F0B               	goto	l1901
  3178     072C                     u2930:
  3179     072C                     l1913:
  3180     072C  01CC               	clrf	___flmul@aexp
  3181     072D                     l1915:
  3182     072D  1FCB               	btfss	___flmul@grs+3,7
  3183     072E  2F30               	goto	u2941
  3184     072F  2F31               	goto	u2940
  3185     0730                     u2941:
  3186     0730  2F4D               	goto	l1923
  3187     0731                     u2940:
  3188     0731                     l1917:
  3189     0731  30FF               	movlw	255
  3190     0732  0548               	andwf	___flmul@grs,w
  3191     0733  00C2               	movwf	??___flmul
  3192     0734  30FF               	movlw	255
  3193     0735  0549               	andwf	___flmul@grs+1,w
  3194     0736  00C3               	movwf	??___flmul+1
  3195     0737  30FF               	movlw	255
  3196     0738  054A               	andwf	___flmul@grs+2,w
  3197     0739  00C4               	movwf	??___flmul+2
  3198     073A  307F               	movlw	127
  3199     073B  054B               	andwf	___flmul@grs+3,w
  3200     073C  00C5               	movwf	??___flmul+3
  3201     073D  0845               	movf	??___flmul+3,w
  3202     073E  0444               	iorwf	??___flmul+2,w
  3203     073F  0443               	iorwf	??___flmul+1,w
  3204     0740  0442               	iorwf	??___flmul,w
  3205     0741  1903               	skipnz
  3206     0742  2F44               	goto	u2951
  3207     0743  2F45               	goto	u2950
  3208     0744                     u2951:
  3209     0744  2F48               	goto	l612
  3210     0745                     u2950:
  3211     0745                     l1919:
  3212     0745  3001               	movlw	1
  3213     0746  00CC               	movwf	___flmul@aexp
  3214     0747  2F4D               	goto	l1923
  3215     0748                     l612:
  3216     0748  1C4E               	btfss	___flmul@prod,0
  3217     0749  2F4B               	goto	u2961
  3218     074A  2F4C               	goto	u2960
  3219     074B                     u2961:
  3220     074B  2F4D               	goto	l1923
  3221     074C                     u2960:
  3222     074C  2F45               	goto	l1919
  3223     074D                     l1923:
  3224     074D  084C               	movf	___flmul@aexp,w
  3225     074E  1903               	btfsc	3,2
  3226     074F  2F51               	goto	u2971
  3227     0750  2F52               	goto	u2970
  3228     0751                     u2971:
  3229     0751  2F83               	goto	l1933
  3230     0752                     u2970:
  3231     0752                     l1925:
  3232     0752  3001               	movlw	1
  3233     0753  07CE               	addwf	___flmul@prod,f
  3234     0754  3000               	movlw	0
  3235     0755  1803               	skipnc
  3236     0756  3001               	movlw	1
  3237     0757  07CF               	addwf	___flmul@prod+1,f
  3238     0758  3000               	movlw	0
  3239     0759  1803               	skipnc
  3240     075A  3001               	movlw	1
  3241     075B  07D0               	addwf	___flmul@prod+2,f
  3242     075C  3000               	movlw	0
  3243     075D  1803               	skipnc
  3244     075E  3001               	movlw	1
  3245     075F  07D1               	addwf	___flmul@prod+3,f
  3246     0760                     l1927:
  3247     0760  1C51               	btfss	___flmul@prod+3,0
  3248     0761  2F63               	goto	u2981
  3249     0762  2F64               	goto	u2980
  3250     0763                     u2981:
  3251     0763  2F83               	goto	l1933
  3252     0764                     u2980:
  3253     0764                     l1929:
  3254     0764  084E               	movf	___flmul@prod,w
  3255     0765  00C2               	movwf	??___flmul
  3256     0766  084F               	movf	___flmul@prod+1,w
  3257     0767  00C3               	movwf	??___flmul+1
  3258     0768  0850               	movf	___flmul@prod+2,w
  3259     0769  00C4               	movwf	??___flmul+2
  3260     076A  0851               	movf	___flmul@prod+3,w
  3261     076B  00C5               	movwf	??___flmul+3
  3262     076C  3001               	movlw	1
  3263     076D  00C6               	movwf	??___flmul+4
  3264     076E                     u2995:
  3265     076E  0D45               	rlf	??___flmul+3,w
  3266     076F  0CC5               	rrf	??___flmul+3,f
  3267     0770  0CC4               	rrf	??___flmul+2,f
  3268     0771  0CC3               	rrf	??___flmul+1,f
  3269     0772  0CC2               	rrf	??___flmul,f
  3270     0773                     u2990:
  3271     0773  0BC6               	decfsz	??___flmul+4,f
  3272     0774  2F6E               	goto	u2995
  3273     0775  0845               	movf	??___flmul+3,w
  3274     0776  00D1               	movwf	___flmul@prod+3
  3275     0777  0844               	movf	??___flmul+2,w
  3276     0778  00D0               	movwf	___flmul@prod+2
  3277     0779  0843               	movf	??___flmul+1,w
  3278     077A  00CF               	movwf	___flmul@prod+1
  3279     077B  0842               	movf	??___flmul,w
  3280     077C  00CE               	movwf	___flmul@prod
  3281     077D                     l1931:
  3282     077D  3001               	movlw	1
  3283     077E  07D2               	addwf	___flmul@temp,f
  3284     077F  1803               	skipnc
  3285     0780  0AD3               	incf	___flmul@temp+1,f
  3286     0781  3000               	movlw	0
  3287     0782  07D3               	addwf	___flmul@temp+1,f
  3288     0783                     l1933:
  3289     0783  0853               	movf	___flmul@temp+1,w
  3290     0784  3A80               	xorlw	128
  3291     0785  00FF               	movwf	btemp+1
  3292     0786  3080               	movlw	128
  3293     0787  027F               	subwf	btemp+1,w
  3294     0788  1D03               	skipz
  3295     0789  2F8C               	goto	u3005
  3296     078A  30FF               	movlw	255
  3297     078B  0252               	subwf	___flmul@temp,w
  3298     078C                     u3005:
  3299     078C  1C03               	skipc
  3300     078D  2F8F               	goto	u3001
  3301     078E  2F90               	goto	u3000
  3302     078F                     u3001:
  3303     078F  2F9B               	goto	l1937
  3304     0790                     u3000:
  3305     0790                     l1935:
  3306     0790  307F               	movlw	127
  3307     0791  1283               	bcf	3,5	;RP0=0, select bank0
  3308     0792  1303               	bcf	3,6	;RP1=0, select bank0
  3309     0793  00D1               	movwf	___flmul@prod+3
  3310     0794  3080               	movlw	128
  3311     0795  00D0               	movwf	___flmul@prod+2
  3312     0796  3000               	movlw	0
  3313     0797  00CF               	movwf	___flmul@prod+1
  3314     0798  3000               	movlw	0
  3315     0799  00CE               	movwf	___flmul@prod
  3316     079A  2FCC               	goto	l618
  3317     079B                     l1937:
  3318     079B  1283               	bcf	3,5	;RP0=0, select bank0
  3319     079C  1303               	bcf	3,6	;RP1=0, select bank0
  3320     079D  0853               	movf	___flmul@temp+1,w
  3321     079E  3A80               	xorlw	128
  3322     079F  00FF               	movwf	btemp+1
  3323     07A0  3080               	movlw	128
  3324     07A1  027F               	subwf	btemp+1,w
  3325     07A2  1D03               	skipz
  3326     07A3  2FA6               	goto	u3015
  3327     07A4  3001               	movlw	1
  3328     07A5  0252               	subwf	___flmul@temp,w
  3329     07A6                     u3015:
  3330     07A6  1803               	skipnc
  3331     07A7  2FA9               	goto	u3011
  3332     07A8  2FAA               	goto	u3010
  3333     07A9                     u3011:
  3334     07A9  2FB6               	goto	l1943
  3335     07AA                     u3010:
  3336     07AA                     l1939:
  3337     07AA  3000               	movlw	0
  3338     07AB  1283               	bcf	3,5	;RP0=0, select bank0
  3339     07AC  1303               	bcf	3,6	;RP1=0, select bank0
  3340     07AD  00D1               	movwf	___flmul@prod+3
  3341     07AE  3000               	movlw	0
  3342     07AF  00D0               	movwf	___flmul@prod+2
  3343     07B0  3000               	movlw	0
  3344     07B1  00CF               	movwf	___flmul@prod+1
  3345     07B2  3000               	movlw	0
  3346     07B3  00CE               	movwf	___flmul@prod
  3347     07B4                     l1941:
  3348     07B4  01C7               	clrf	___flmul@sign
  3349     07B5  2FCC               	goto	l618
  3350     07B6                     l1943:
  3351     07B6  1283               	bcf	3,5	;RP0=0, select bank0
  3352     07B7  1303               	bcf	3,6	;RP1=0, select bank0
  3353     07B8  0852               	movf	___flmul@temp,w
  3354     07B9  00CD               	movwf	___flmul@bexp
  3355     07BA  30FF               	movlw	255
  3356     07BB  05CE               	andwf	___flmul@prod,f
  3357     07BC  30FF               	movlw	255
  3358     07BD  05CF               	andwf	___flmul@prod+1,f
  3359     07BE  307F               	movlw	127
  3360     07BF  05D0               	andwf	___flmul@prod+2,f
  3361     07C0  3000               	movlw	0
  3362     07C1  05D1               	andwf	___flmul@prod+3,f
  3363     07C2                     l1945:
  3364     07C2  1C4D               	btfss	___flmul@bexp,0
  3365     07C3  2FC5               	goto	u3021
  3366     07C4  2FC6               	goto	u3020
  3367     07C5                     u3021:
  3368     07C5  2FC7               	goto	l1949
  3369     07C6                     u3020:
  3370     07C6                     l1947:
  3371     07C6  17D0               	bsf	___flmul@prod+2,7
  3372     07C7                     l1949:
  3373     07C7  084D               	movf	___flmul@bexp,w
  3374     07C8  00C2               	movwf	??___flmul
  3375     07C9  1003               	clrc
  3376     07CA  0C42               	rrf	??___flmul,w
  3377     07CB  00D1               	movwf	___flmul@prod+3
  3378     07CC                     l618:
  3379     07CC  0847               	movf	___flmul@sign,w
  3380     07CD  04D1               	iorwf	___flmul@prod+3,f
  3381     07CE                     l1951:
  3382     07CE  0851               	movf	___flmul@prod+3,w
  3383     07CF  00BD               	movwf	?___flmul+3
  3384     07D0  0850               	movf	___flmul@prod+2,w
  3385     07D1  00BC               	movwf	?___flmul+2
  3386     07D2  084F               	movf	___flmul@prod+1,w
  3387     07D3  00BB               	movwf	?___flmul+1
  3388     07D4  084E               	movf	___flmul@prod,w
  3389     07D5  00BA               	movwf	?___flmul
  3390     07D6                     l606:
  3391     07D6  0008               	return
  3392     07D7                     __end_of___flmul:
  3393                           
  3394                           	psect	text9
  3395     0BF4                     __ptext9:	
  3396 ;; *************** function __Umul8_16 *****************
  3397 ;; Defined at:
  3398 ;;		line 4 in file "C:\Program Files\Microchip\xc8\v3.00\pic\sources\c99\common\Umul8_16.c"
  3399 ;; Parameters:    Size  Location     Type
  3400 ;;  multiplier      1    wreg     unsigned char 
  3401 ;;  multiplicand    1    0[COMMON] unsigned char 
  3402 ;; Auto vars:     Size  Location     Type
  3403 ;;  multiplier      1    8[COMMON] unsigned char 
  3404 ;;  word_mpld       2    6[COMMON] unsigned short 
  3405 ;;  product         2    4[COMMON] unsigned short 
  3406 ;; Return value:  Size  Location     Type
  3407 ;;                  2    0[COMMON] unsigned int 
  3408 ;; Registers used:
  3409 ;;		wreg, status,2, status,0
  3410 ;; Tracked objects:
  3411 ;;		On entry : 0/0
  3412 ;;		On exit  : 0/0
  3413 ;;		Unchanged: 0/0
  3414 ;; Data sizes:     COMMON   BANK0   BANK1   BANK3   BANK2
  3415 ;;      Params:         2       0       0       0       0
  3416 ;;      Locals:         5       0       0       0       0
  3417 ;;      Temps:          2       0       0       0       0
  3418 ;;      Totals:         9       0       0       0       0
  3419 ;;Total ram usage:        9 bytes
  3420 ;; Hardware stack levels used: 1
  3421 ;; This function calls:
  3422 ;;		Nothing
  3423 ;; This function is called by:
  3424 ;;		___flmul
  3425 ;; This function uses a non-reentrant model
  3426 ;;
  3427                           
  3428     0BF4                     __Umul8_16:	
  3429                           ;psect for function __Umul8_16
  3430                           
  3431                           
  3432                           ;incstack = 0
  3433                           ; Regs used in __Umul8_16: [wreg+status,2+status,0]
  3434                           ;__Umul8_16@multiplier stored from wreg
  3435     0BF4  00F8               	movwf	__Umul8_16@multiplier
  3436     0BF5                     l1373:
  3437     0BF5  01F4               	clrf	__Umul8_16@product
  3438     0BF6  01F5               	clrf	__Umul8_16@product+1
  3439     0BF7                     l1375:
  3440     0BF7  0870               	movf	__Umul8_16@multiplicand,w
  3441     0BF8  00F2               	movwf	??__Umul8_16
  3442     0BF9  01F3               	clrf	??__Umul8_16+1
  3443     0BFA  0872               	movf	??__Umul8_16,w
  3444     0BFB  00F6               	movwf	__Umul8_16@word_mpld
  3445     0BFC  0873               	movf	??__Umul8_16+1,w
  3446     0BFD  00F7               	movwf	__Umul8_16@word_mpld+1
  3447     0BFE                     l1377:
  3448     0BFE  1C78               	btfss	__Umul8_16@multiplier,0
  3449     0BFF  2C01               	goto	u1651
  3450     0C00  2C02               	goto	u1650
  3451     0C01                     u1651:
  3452     0C01  2C08               	goto	l625
  3453     0C02                     u1650:
  3454     0C02                     l1379:
  3455     0C02  0876               	movf	__Umul8_16@word_mpld,w
  3456     0C03  07F4               	addwf	__Umul8_16@product,f
  3457     0C04  1803               	skipnc
  3458     0C05  0AF5               	incf	__Umul8_16@product+1,f
  3459     0C06  0877               	movf	__Umul8_16@word_mpld+1,w
  3460     0C07  07F5               	addwf	__Umul8_16@product+1,f
  3461     0C08                     l625:
  3462     0C08  3001               	movlw	1
  3463     0C09                     u1665:
  3464     0C09  1003               	clrc
  3465     0C0A  0DF6               	rlf	__Umul8_16@word_mpld,f
  3466     0C0B  0DF7               	rlf	__Umul8_16@word_mpld+1,f
  3467     0C0C  3EFF               	addlw	-1
  3468     0C0D  1D03               	skipz
  3469     0C0E  2C09               	goto	u1665
  3470     0C0F  1003               	clrc
  3471     0C10  0CF8               	rrf	__Umul8_16@multiplier,f
  3472     0C11                     l1381:
  3473     0C11  0878               	movf	__Umul8_16@multiplier,w
  3474     0C12  1D03               	btfss	3,2
  3475     0C13  2C15               	goto	u1671
  3476     0C14  2C16               	goto	u1670
  3477     0C15                     u1671:
  3478     0C15  2BFE               	goto	l1377
  3479     0C16                     u1670:
  3480     0C16                     l1383:
  3481     0C16  0875               	movf	__Umul8_16@product+1,w
  3482     0C17  00F1               	movwf	?__Umul8_16+1
  3483     0C18  0874               	movf	__Umul8_16@product,w
  3484     0C19  00F0               	movwf	?__Umul8_16
  3485     0C1A                     l627:
  3486     0C1A  0008               	return
  3487     0C1B                     __end_of__Umul8_16:
  3488                           
  3489                           	psect	text10
  3490     007B                     __ptext10:	
  3491 ;; *************** function ___fldiv *****************
  3492 ;; Defined at:
  3493 ;;		line 8 in file "C:\Program Files\Microchip\xc8\v3.00\pic\sources\c99\common\sprcdiv.c"
  3494 ;; Parameters:    Size  Location     Type
  3495 ;;  a               4    0[BANK0 ] unsigned int 
  3496 ;;  b               4    4[BANK0 ] unsigned int 
  3497 ;; Auto vars:     Size  Location     Type
  3498 ;;  grs             4   20[BANK0 ] unsigned long 
  3499 ;;  rem             4   13[BANK0 ] unsigned long 
  3500 ;;  new_exp         2   18[BANK0 ] short 
  3501 ;;  aexp            1   25[BANK0 ] unsigned char 
  3502 ;;  bexp            1   24[BANK0 ] unsigned char 
  3503 ;;  sign            1   17[BANK0 ] unsigned char 
  3504 ;; Return value:  Size  Location     Type
  3505 ;;                  4    0[BANK0 ] unsigned char 
  3506 ;; Registers used:
  3507 ;;		wreg, status,2, status,0, btemp+1
  3508 ;; Tracked objects:
  3509 ;;		On entry : 0/0
  3510 ;;		On exit  : 0/0
  3511 ;;		Unchanged: 0/0
  3512 ;; Data sizes:     COMMON   BANK0   BANK1   BANK3   BANK2
  3513 ;;      Params:         0       8       0       0       0
  3514 ;;      Locals:         0      13       0       0       0
  3515 ;;      Temps:          0       5       0       0       0
  3516 ;;      Totals:         0      26       0       0       0
  3517 ;;Total ram usage:       26 bytes
  3518 ;; Hardware stack levels used: 1
  3519 ;; This function calls:
  3520 ;;		Nothing
  3521 ;; This function is called by:
  3522 ;;		_Scale_Display
  3523 ;; This function uses a non-reentrant model
  3524 ;;
  3525                           
  3526     007B                     ___fldiv:	
  3527                           ;psect for function ___fldiv
  3528                           
  3529     007B                     l1669:	
  3530                           ;incstack = 0
  3531                           ; Regs used in ___fldiv: [wreg+status,2+status,0+btemp+1]
  3532                           
  3533     007B  1283               	bcf	3,5	;RP0=0, select bank0
  3534     007C  1303               	bcf	3,6	;RP1=0, select bank0
  3535     007D  0827               	movf	___fldiv@b+3,w
  3536     007E  00B1               	movwf	___fldiv@sign
  3537     007F                     l1671:
  3538     007F  3080               	movlw	128
  3539     0080  05B1               	andwf	___fldiv@sign,f
  3540     0081                     l1673:
  3541     0081  0827               	movf	___fldiv@b+3,w
  3542     0082  00A8               	movwf	??___fldiv
  3543     0083  0728               	addwf	??___fldiv,w
  3544     0084  00B8               	movwf	___fldiv@bexp
  3545     0085                     l1675:
  3546     0085  1FA6               	btfss	___fldiv@b+2,7
  3547     0086  2888               	goto	u2371
  3548     0087  2889               	goto	u2370
  3549     0088                     u2371:
  3550     0088  288A               	goto	l1679
  3551     0089                     u2370:
  3552     0089                     l1677:
  3553     0089  1438               	bsf	___fldiv@bexp,0
  3554     008A                     l1679:
  3555     008A  0838               	movf	___fldiv@bexp,w
  3556     008B  1903               	btfsc	3,2
  3557     008C  288E               	goto	u2381
  3558     008D  288F               	goto	u2380
  3559     008E                     u2381:
  3560     008E  289F               	goto	l1689
  3561     008F                     u2380:
  3562     008F                     l1681:
  3563     008F  0A38               	incf	___fldiv@bexp,w
  3564     0090  1D03               	btfss	3,2
  3565     0091  2893               	goto	u2391
  3566     0092  2894               	goto	u2390
  3567     0093                     u2391:
  3568     0093  289C               	goto	l1685
  3569     0094                     u2390:
  3570     0094                     l1683:
  3571     0094  3000               	movlw	0
  3572     0095  00A7               	movwf	___fldiv@b+3
  3573     0096  3000               	movlw	0
  3574     0097  00A6               	movwf	___fldiv@b+2
  3575     0098  3000               	movlw	0
  3576     0099  00A5               	movwf	___fldiv@b+1
  3577     009A  3000               	movlw	0
  3578     009B  00A4               	movwf	___fldiv@b
  3579     009C                     l1685:
  3580     009C  17A6               	bsf	___fldiv@b+2,7
  3581     009D                     l1687:
  3582     009D  01A7               	clrf	___fldiv@b+3
  3583     009E  28A7               	goto	l1691
  3584     009F                     l1689:
  3585     009F  3000               	movlw	0
  3586     00A0  00A7               	movwf	___fldiv@b+3
  3587     00A1  3000               	movlw	0
  3588     00A2  00A6               	movwf	___fldiv@b+2
  3589     00A3  3000               	movlw	0
  3590     00A4  00A5               	movwf	___fldiv@b+1
  3591     00A5  3000               	movlw	0
  3592     00A6  00A4               	movwf	___fldiv@b
  3593     00A7                     l1691:
  3594     00A7  0823               	movf	___fldiv@a+3,w
  3595     00A8  3980               	andlw	128
  3596     00A9  06B1               	xorwf	___fldiv@sign,f
  3597     00AA                     l1693:
  3598     00AA  0823               	movf	___fldiv@a+3,w
  3599     00AB  00A8               	movwf	??___fldiv
  3600     00AC  0728               	addwf	??___fldiv,w
  3601     00AD  00B9               	movwf	___fldiv@aexp
  3602     00AE                     l1695:
  3603     00AE  1FA2               	btfss	___fldiv@a+2,7
  3604     00AF  28B1               	goto	u2401
  3605     00B0  28B2               	goto	u2400
  3606     00B1                     u2401:
  3607     00B1  28B3               	goto	l1699
  3608     00B2                     u2400:
  3609     00B2                     l1697:
  3610     00B2  1439               	bsf	___fldiv@aexp,0
  3611     00B3                     l1699:
  3612     00B3  0839               	movf	___fldiv@aexp,w
  3613     00B4  1903               	btfsc	3,2
  3614     00B5  28B7               	goto	u2411
  3615     00B6  28B8               	goto	u2410
  3616     00B7                     u2411:
  3617     00B7  28C8               	goto	l1709
  3618     00B8                     u2410:
  3619     00B8                     l1701:
  3620     00B8  0A39               	incf	___fldiv@aexp,w
  3621     00B9  1D03               	btfss	3,2
  3622     00BA  28BC               	goto	u2421
  3623     00BB  28BD               	goto	u2420
  3624     00BC                     u2421:
  3625     00BC  28C5               	goto	l1705
  3626     00BD                     u2420:
  3627     00BD                     l1703:
  3628     00BD  3000               	movlw	0
  3629     00BE  00A3               	movwf	___fldiv@a+3
  3630     00BF  3000               	movlw	0
  3631     00C0  00A2               	movwf	___fldiv@a+2
  3632     00C1  3000               	movlw	0
  3633     00C2  00A1               	movwf	___fldiv@a+1
  3634     00C3  3000               	movlw	0
  3635     00C4  00A0               	movwf	___fldiv@a
  3636     00C5                     l1705:
  3637     00C5  17A2               	bsf	___fldiv@a+2,7
  3638     00C6                     l1707:
  3639     00C6  01A3               	clrf	___fldiv@a+3
  3640     00C7  28D0               	goto	l566
  3641     00C8                     l1709:
  3642     00C8  3000               	movlw	0
  3643     00C9  00A3               	movwf	___fldiv@a+3
  3644     00CA  3000               	movlw	0
  3645     00CB  00A2               	movwf	___fldiv@a+2
  3646     00CC  3000               	movlw	0
  3647     00CD  00A1               	movwf	___fldiv@a+1
  3648     00CE  3000               	movlw	0
  3649     00CF  00A0               	movwf	___fldiv@a
  3650     00D0                     l566:
  3651     00D0  0823               	movf	___fldiv@a+3,w
  3652     00D1  0422               	iorwf	___fldiv@a+2,w
  3653     00D2  0421               	iorwf	___fldiv@a+1,w
  3654     00D3  0420               	iorwf	___fldiv@a,w
  3655     00D4  1D03               	skipz
  3656     00D5  28D7               	goto	u2431
  3657     00D6  28D8               	goto	u2430
  3658     00D7                     u2431:
  3659     00D7  28EF               	goto	l1719
  3660     00D8                     u2430:
  3661     00D8                     l1711:
  3662     00D8  3000               	movlw	0
  3663     00D9  00A7               	movwf	___fldiv@b+3
  3664     00DA  3000               	movlw	0
  3665     00DB  00A6               	movwf	___fldiv@b+2
  3666     00DC  3000               	movlw	0
  3667     00DD  00A5               	movwf	___fldiv@b+1
  3668     00DE  3000               	movlw	0
  3669     00DF  00A4               	movwf	___fldiv@b
  3670     00E0  3080               	movlw	128
  3671     00E1  04A6               	iorwf	___fldiv@b+2,f
  3672     00E2  307F               	movlw	127
  3673     00E3  04A7               	iorwf	___fldiv@b+3,f
  3674     00E4                     l1713:
  3675     00E4  0831               	movf	___fldiv@sign,w
  3676     00E5  04A7               	iorwf	___fldiv@b+3,f
  3677     00E6                     l1715:
  3678     00E6  0827               	movf	___fldiv@b+3,w
  3679     00E7  00A3               	movwf	?___fldiv+3
  3680     00E8  0826               	movf	___fldiv@b+2,w
  3681     00E9  00A2               	movwf	?___fldiv+2
  3682     00EA  0825               	movf	___fldiv@b+1,w
  3683     00EB  00A1               	movwf	?___fldiv+1
  3684     00EC  0824               	movf	___fldiv@b,w
  3685     00ED  00A0               	movwf	?___fldiv
  3686     00EE  2A44               	goto	l568
  3687     00EF                     l1719:
  3688     00EF  0838               	movf	___fldiv@bexp,w
  3689     00F0  1D03               	btfss	3,2
  3690     00F1  28F3               	goto	u2441
  3691     00F2  28F4               	goto	u2440
  3692     00F3                     u2441:
  3693     00F3  28FD               	goto	l1725
  3694     00F4                     u2440:
  3695     00F4                     l1721:
  3696     00F4  3000               	movlw	0
  3697     00F5  00A3               	movwf	?___fldiv+3
  3698     00F6  3000               	movlw	0
  3699     00F7  00A2               	movwf	?___fldiv+2
  3700     00F8  3000               	movlw	0
  3701     00F9  00A1               	movwf	?___fldiv+1
  3702     00FA  3000               	movlw	0
  3703     00FB  00A0               	movwf	?___fldiv
  3704     00FC  2A44               	goto	l568
  3705     00FD                     l1725:
  3706     00FD  0838               	movf	___fldiv@bexp,w
  3707     00FE  00A8               	movwf	??___fldiv
  3708     00FF  01A9               	clrf	??___fldiv+1
  3709     0100  0829               	movf	??___fldiv+1,w
  3710     0101  00AB               	movwf	??___fldiv+3
  3711     0102  0839               	movf	___fldiv@aexp,w
  3712     0103  0228               	subwf	??___fldiv,w
  3713     0104  00AA               	movwf	??___fldiv+2
  3714     0105  1C03               	skipc
  3715     0106  03AB               	decf	??___fldiv+3,f
  3716     0107  082A               	movf	??___fldiv+2,w
  3717     0108  3E7F               	addlw	127
  3718     0109  00B2               	movwf	___fldiv@new_exp
  3719     010A  082B               	movf	??___fldiv+3,w
  3720     010B  1803               	skipnc
  3721     010C  3E01               	addlw	1
  3722     010D  3E00               	addlw	0
  3723     010E  00B3               	movwf	___fldiv@new_exp+1
  3724     010F                     l1727:
  3725     010F  0827               	movf	___fldiv@b+3,w
  3726     0110  00B0               	movwf	___fldiv@rem+3
  3727     0111  0826               	movf	___fldiv@b+2,w
  3728     0112  00AF               	movwf	___fldiv@rem+2
  3729     0113  0825               	movf	___fldiv@b+1,w
  3730     0114  00AE               	movwf	___fldiv@rem+1
  3731     0115  0824               	movf	___fldiv@b,w
  3732     0116  00AD               	movwf	___fldiv@rem
  3733     0117                     l1729:
  3734     0117  3000               	movlw	0
  3735     0118  00A7               	movwf	___fldiv@b+3
  3736     0119  3000               	movlw	0
  3737     011A  00A6               	movwf	___fldiv@b+2
  3738     011B  3000               	movlw	0
  3739     011C  00A5               	movwf	___fldiv@b+1
  3740     011D  3000               	movlw	0
  3741     011E  00A4               	movwf	___fldiv@b
  3742     011F                     l1731:
  3743     011F  3000               	movlw	0
  3744     0120  00B7               	movwf	___fldiv@grs+3
  3745     0121  3000               	movlw	0
  3746     0122  00B6               	movwf	___fldiv@grs+2
  3747     0123  3000               	movlw	0
  3748     0124  00B5               	movwf	___fldiv@grs+1
  3749     0125  3000               	movlw	0
  3750     0126  00B4               	movwf	___fldiv@grs
  3751     0127                     l1733:
  3752     0127  01B9               	clrf	___fldiv@aexp
  3753     0128  2971               	goto	l1753
  3754     0129                     l1735:
  3755     0129  0839               	movf	___fldiv@aexp,w
  3756     012A  1903               	btfsc	3,2
  3757     012B  292D               	goto	u2451
  3758     012C  292E               	goto	u2450
  3759     012D                     u2451:
  3760     012D  294E               	goto	l1745
  3761     012E                     u2450:
  3762     012E                     l1737:
  3763     012E  3001               	movlw	1
  3764     012F  00A8               	movwf	??___fldiv
  3765     0130                     u2465:
  3766     0130  1003               	clrc
  3767     0131  0DAD               	rlf	___fldiv@rem,f
  3768     0132  0DAE               	rlf	___fldiv@rem+1,f
  3769     0133  0DAF               	rlf	___fldiv@rem+2,f
  3770     0134  0DB0               	rlf	___fldiv@rem+3,f
  3771     0135  0BA8               	decfsz	??___fldiv,f
  3772     0136  2930               	goto	u2465
  3773     0137  3001               	movlw	1
  3774     0138  00A8               	movwf	??___fldiv
  3775     0139                     u2475:
  3776     0139  1003               	clrc
  3777     013A  0DA4               	rlf	___fldiv@b,f
  3778     013B  0DA5               	rlf	___fldiv@b+1,f
  3779     013C  0DA6               	rlf	___fldiv@b+2,f
  3780     013D  0DA7               	rlf	___fldiv@b+3,f
  3781     013E  0BA8               	decfsz	??___fldiv,f
  3782     013F  2939               	goto	u2475
  3783     0140                     l1739:
  3784     0140  1FB7               	btfss	___fldiv@grs+3,7
  3785     0141  2943               	goto	u2481
  3786     0142  2944               	goto	u2480
  3787     0143                     u2481:
  3788     0143  2945               	goto	l1743
  3789     0144                     u2480:
  3790     0144                     l1741:
  3791     0144  1424               	bsf	___fldiv@b,0
  3792     0145                     l1743:
  3793     0145  3001               	movlw	1
  3794     0146  00A8               	movwf	??___fldiv
  3795     0147                     u2495:
  3796     0147  1003               	clrc
  3797     0148  0DB4               	rlf	___fldiv@grs,f
  3798     0149  0DB5               	rlf	___fldiv@grs+1,f
  3799     014A  0DB6               	rlf	___fldiv@grs+2,f
  3800     014B  0DB7               	rlf	___fldiv@grs+3,f
  3801     014C  0BA8               	decfsz	??___fldiv,f
  3802     014D  2947               	goto	u2495
  3803     014E                     l1745:
  3804     014E  0823               	movf	___fldiv@a+3,w
  3805     014F  0230               	subwf	___fldiv@rem+3,w
  3806     0150  1D03               	skipz
  3807     0151  295C               	goto	u2505
  3808     0152  0822               	movf	___fldiv@a+2,w
  3809     0153  022F               	subwf	___fldiv@rem+2,w
  3810     0154  1D03               	skipz
  3811     0155  295C               	goto	u2505
  3812     0156  0821               	movf	___fldiv@a+1,w
  3813     0157  022E               	subwf	___fldiv@rem+1,w
  3814     0158  1D03               	skipz
  3815     0159  295C               	goto	u2505
  3816     015A  0820               	movf	___fldiv@a,w
  3817     015B  022D               	subwf	___fldiv@rem,w
  3818     015C                     u2505:
  3819     015C  1C03               	skipc
  3820     015D  295F               	goto	u2501
  3821     015E  2960               	goto	u2500
  3822     015F                     u2501:
  3823     015F  296F               	goto	l1751
  3824     0160                     u2500:
  3825     0160                     l1747:
  3826     0160  1737               	bsf	___fldiv@grs+3,6
  3827     0161                     l1749:
  3828     0161  0820               	movf	___fldiv@a,w
  3829     0162  02AD               	subwf	___fldiv@rem,f
  3830     0163  0821               	movf	___fldiv@a+1,w
  3831     0164  1C03               	skipc
  3832     0165  0F21               	incfsz	___fldiv@a+1,w
  3833     0166  02AE               	subwf	___fldiv@rem+1,f
  3834     0167  0822               	movf	___fldiv@a+2,w
  3835     0168  1C03               	skipc
  3836     0169  0F22               	incfsz	___fldiv@a+2,w
  3837     016A  02AF               	subwf	___fldiv@rem+2,f
  3838     016B  0823               	movf	___fldiv@a+3,w
  3839     016C  1C03               	skipc
  3840     016D  0F23               	incfsz	___fldiv@a+3,w
  3841     016E  02B0               	subwf	___fldiv@rem+3,f
  3842     016F                     l1751:
  3843     016F  3001               	movlw	1
  3844     0170  07B9               	addwf	___fldiv@aexp,f
  3845     0171                     l1753:
  3846     0171  301A               	movlw	26
  3847     0172  0239               	subwf	___fldiv@aexp,w
  3848     0173  1C03               	skipc
  3849     0174  2976               	goto	u2511
  3850     0175  2977               	goto	u2510
  3851     0176                     u2511:
  3852     0176  2929               	goto	l1735
  3853     0177                     u2510:
  3854     0177                     l1755:
  3855     0177  0830               	movf	___fldiv@rem+3,w
  3856     0178  042F               	iorwf	___fldiv@rem+2,w
  3857     0179  042E               	iorwf	___fldiv@rem+1,w
  3858     017A  042D               	iorwf	___fldiv@rem,w
  3859     017B  1903               	skipnz
  3860     017C  297E               	goto	u2521
  3861     017D  297F               	goto	u2520
  3862     017E                     u2521:
  3863     017E  299E               	goto	l1769
  3864     017F                     u2520:
  3865     017F                     l1757:
  3866     017F  1434               	bsf	___fldiv@grs,0
  3867     0180  299E               	goto	l1769
  3868     0181                     l1759:
  3869     0181  3001               	movlw	1
  3870     0182  00A8               	movwf	??___fldiv
  3871     0183                     u2535:
  3872     0183  1003               	clrc
  3873     0184  0DA4               	rlf	___fldiv@b,f
  3874     0185  0DA5               	rlf	___fldiv@b+1,f
  3875     0186  0DA6               	rlf	___fldiv@b+2,f
  3876     0187  0DA7               	rlf	___fldiv@b+3,f
  3877     0188  0BA8               	decfsz	??___fldiv,f
  3878     0189  2983               	goto	u2535
  3879     018A                     l1761:
  3880     018A  1FB7               	btfss	___fldiv@grs+3,7
  3881     018B  298D               	goto	u2541
  3882     018C  298E               	goto	u2540
  3883     018D                     u2541:
  3884     018D  298F               	goto	l1765
  3885     018E                     u2540:
  3886     018E                     l1763:
  3887     018E  1424               	bsf	___fldiv@b,0
  3888     018F                     l1765:
  3889     018F  3001               	movlw	1
  3890     0190  00A8               	movwf	??___fldiv
  3891     0191                     u2555:
  3892     0191  1003               	clrc
  3893     0192  0DB4               	rlf	___fldiv@grs,f
  3894     0193  0DB5               	rlf	___fldiv@grs+1,f
  3895     0194  0DB6               	rlf	___fldiv@grs+2,f
  3896     0195  0DB7               	rlf	___fldiv@grs+3,f
  3897     0196  0BA8               	decfsz	??___fldiv,f
  3898     0197  2991               	goto	u2555
  3899     0198                     l1767:
  3900     0198  30FF               	movlw	255
  3901     0199  07B2               	addwf	___fldiv@new_exp,f
  3902     019A  1803               	skipnc
  3903     019B  0AB3               	incf	___fldiv@new_exp+1,f
  3904     019C  30FF               	movlw	255
  3905     019D  07B3               	addwf	___fldiv@new_exp+1,f
  3906     019E                     l1769:
  3907     019E  1FA6               	btfss	___fldiv@b+2,7
  3908     019F  29A1               	goto	u2561
  3909     01A0  29A2               	goto	u2560
  3910     01A1                     u2561:
  3911     01A1  2981               	goto	l1759
  3912     01A2                     u2560:
  3913     01A2                     l1771:
  3914     01A2  01B9               	clrf	___fldiv@aexp
  3915     01A3                     l1773:
  3916     01A3  1FB7               	btfss	___fldiv@grs+3,7
  3917     01A4  29A6               	goto	u2571
  3918     01A5  29A7               	goto	u2570
  3919     01A6                     u2571:
  3920     01A6  29C3               	goto	l1781
  3921     01A7                     u2570:
  3922     01A7                     l1775:
  3923     01A7  30FF               	movlw	255
  3924     01A8  0534               	andwf	___fldiv@grs,w
  3925     01A9  00A8               	movwf	??___fldiv
  3926     01AA  30FF               	movlw	255
  3927     01AB  0535               	andwf	___fldiv@grs+1,w
  3928     01AC  00A9               	movwf	??___fldiv+1
  3929     01AD  30FF               	movlw	255
  3930     01AE  0536               	andwf	___fldiv@grs+2,w
  3931     01AF  00AA               	movwf	??___fldiv+2
  3932     01B0  307F               	movlw	127
  3933     01B1  0537               	andwf	___fldiv@grs+3,w
  3934     01B2  00AB               	movwf	??___fldiv+3
  3935     01B3  082B               	movf	??___fldiv+3,w
  3936     01B4  042A               	iorwf	??___fldiv+2,w
  3937     01B5  0429               	iorwf	??___fldiv+1,w
  3938     01B6  0428               	iorwf	??___fldiv,w
  3939     01B7  1903               	skipnz
  3940     01B8  29BA               	goto	u2581
  3941     01B9  29BB               	goto	u2580
  3942     01BA                     u2581:
  3943     01BA  29BE               	goto	l582
  3944     01BB                     u2580:
  3945     01BB                     l1777:
  3946     01BB  3001               	movlw	1
  3947     01BC  00B9               	movwf	___fldiv@aexp
  3948     01BD  29C3               	goto	l1781
  3949     01BE                     l582:
  3950     01BE  1C24               	btfss	___fldiv@b,0
  3951     01BF  29C1               	goto	u2591
  3952     01C0  29C2               	goto	u2590
  3953     01C1                     u2591:
  3954     01C1  29C3               	goto	l1781
  3955     01C2                     u2590:
  3956     01C2  29BB               	goto	l1777
  3957     01C3                     l1781:
  3958     01C3  0839               	movf	___fldiv@aexp,w
  3959     01C4  1903               	btfsc	3,2
  3960     01C5  29C7               	goto	u2601
  3961     01C6  29C8               	goto	u2600
  3962     01C7                     u2601:
  3963     01C7  29F9               	goto	l1791
  3964     01C8                     u2600:
  3965     01C8                     l1783:
  3966     01C8  3001               	movlw	1
  3967     01C9  07A4               	addwf	___fldiv@b,f
  3968     01CA  3000               	movlw	0
  3969     01CB  1803               	skipnc
  3970     01CC  3001               	movlw	1
  3971     01CD  07A5               	addwf	___fldiv@b+1,f
  3972     01CE  3000               	movlw	0
  3973     01CF  1803               	skipnc
  3974     01D0  3001               	movlw	1
  3975     01D1  07A6               	addwf	___fldiv@b+2,f
  3976     01D2  3000               	movlw	0
  3977     01D3  1803               	skipnc
  3978     01D4  3001               	movlw	1
  3979     01D5  07A7               	addwf	___fldiv@b+3,f
  3980     01D6                     l1785:
  3981     01D6  1C27               	btfss	___fldiv@b+3,0
  3982     01D7  29D9               	goto	u2611
  3983     01D8  29DA               	goto	u2610
  3984     01D9                     u2611:
  3985     01D9  29F9               	goto	l1791
  3986     01DA                     u2610:
  3987     01DA                     l1787:
  3988     01DA  0824               	movf	___fldiv@b,w
  3989     01DB  00A8               	movwf	??___fldiv
  3990     01DC  0825               	movf	___fldiv@b+1,w
  3991     01DD  00A9               	movwf	??___fldiv+1
  3992     01DE  0826               	movf	___fldiv@b+2,w
  3993     01DF  00AA               	movwf	??___fldiv+2
  3994     01E0  0827               	movf	___fldiv@b+3,w
  3995     01E1  00AB               	movwf	??___fldiv+3
  3996     01E2  3001               	movlw	1
  3997     01E3  00AC               	movwf	??___fldiv+4
  3998     01E4                     u2625:
  3999     01E4  0D2B               	rlf	??___fldiv+3,w
  4000     01E5  0CAB               	rrf	??___fldiv+3,f
  4001     01E6  0CAA               	rrf	??___fldiv+2,f
  4002     01E7  0CA9               	rrf	??___fldiv+1,f
  4003     01E8  0CA8               	rrf	??___fldiv,f
  4004     01E9                     u2620:
  4005     01E9  0BAC               	decfsz	??___fldiv+4,f
  4006     01EA  29E4               	goto	u2625
  4007     01EB  082B               	movf	??___fldiv+3,w
  4008     01EC  00A7               	movwf	___fldiv@b+3
  4009     01ED  082A               	movf	??___fldiv+2,w
  4010     01EE  00A6               	movwf	___fldiv@b+2
  4011     01EF  0829               	movf	??___fldiv+1,w
  4012     01F0  00A5               	movwf	___fldiv@b+1
  4013     01F1  0828               	movf	??___fldiv,w
  4014     01F2  00A4               	movwf	___fldiv@b
  4015     01F3                     l1789:
  4016     01F3  3001               	movlw	1
  4017     01F4  07B2               	addwf	___fldiv@new_exp,f
  4018     01F5  1803               	skipnc
  4019     01F6  0AB3               	incf	___fldiv@new_exp+1,f
  4020     01F7  3000               	movlw	0
  4021     01F8  07B3               	addwf	___fldiv@new_exp+1,f
  4022     01F9                     l1791:
  4023     01F9  0833               	movf	___fldiv@new_exp+1,w
  4024     01FA  3A80               	xorlw	128
  4025     01FB  00FF               	movwf	btemp+1
  4026     01FC  3080               	movlw	128
  4027     01FD  027F               	subwf	btemp+1,w
  4028     01FE  1D03               	skipz
  4029     01FF  2A02               	goto	u2635
  4030     0200  30FF               	movlw	255
  4031     0201  0232               	subwf	___fldiv@new_exp,w
  4032     0202                     u2635:
  4033     0202  1C03               	skipc
  4034     0203  2A05               	goto	u2631
  4035     0204  2A06               	goto	u2630
  4036     0205                     u2631:
  4037     0205  2A14               	goto	l1795
  4038     0206                     u2630:
  4039     0206                     l1793:
  4040     0206  30FF               	movlw	255
  4041     0207  1283               	bcf	3,5	;RP0=0, select bank0
  4042     0208  1303               	bcf	3,6	;RP1=0, select bank0
  4043     0209  00B2               	movwf	___fldiv@new_exp
  4044     020A  3000               	movlw	0
  4045     020B  00B3               	movwf	___fldiv@new_exp+1
  4046     020C  3000               	movlw	0
  4047     020D  00A7               	movwf	___fldiv@b+3
  4048     020E  3000               	movlw	0
  4049     020F  00A6               	movwf	___fldiv@b+2
  4050     0210  3000               	movlw	0
  4051     0211  00A5               	movwf	___fldiv@b+1
  4052     0212  3000               	movlw	0
  4053     0213  00A4               	movwf	___fldiv@b
  4054     0214                     l1795:
  4055     0214  1283               	bcf	3,5	;RP0=0, select bank0
  4056     0215  1303               	bcf	3,6	;RP1=0, select bank0
  4057     0216  0833               	movf	___fldiv@new_exp+1,w
  4058     0217  3A80               	xorlw	128
  4059     0218  00FF               	movwf	btemp+1
  4060     0219  3080               	movlw	128
  4061     021A  027F               	subwf	btemp+1,w
  4062     021B  1D03               	skipz
  4063     021C  2A1F               	goto	u2645
  4064     021D  3001               	movlw	1
  4065     021E  0232               	subwf	___fldiv@new_exp,w
  4066     021F                     u2645:
  4067     021F  1803               	skipnc
  4068     0220  2A22               	goto	u2641
  4069     0221  2A23               	goto	u2640
  4070     0222                     u2641:
  4071     0222  2A30               	goto	l588
  4072     0223                     u2640:
  4073     0223                     l1797:
  4074     0223  1283               	bcf	3,5	;RP0=0, select bank0
  4075     0224  1303               	bcf	3,6	;RP1=0, select bank0
  4076     0225  01B2               	clrf	___fldiv@new_exp
  4077     0226  01B3               	clrf	___fldiv@new_exp+1
  4078     0227                     l1799:
  4079     0227  3000               	movlw	0
  4080     0228  00A7               	movwf	___fldiv@b+3
  4081     0229  3000               	movlw	0
  4082     022A  00A6               	movwf	___fldiv@b+2
  4083     022B  3000               	movlw	0
  4084     022C  00A5               	movwf	___fldiv@b+1
  4085     022D  3000               	movlw	0
  4086     022E  00A4               	movwf	___fldiv@b
  4087     022F                     l1801:
  4088     022F  01B1               	clrf	___fldiv@sign
  4089     0230                     l588:
  4090     0230  1283               	bcf	3,5	;RP0=0, select bank0
  4091     0231  1303               	bcf	3,6	;RP1=0, select bank0
  4092     0232  0832               	movf	___fldiv@new_exp,w
  4093     0233  00B8               	movwf	___fldiv@bexp
  4094     0234                     l1803:
  4095     0234  1C38               	btfss	___fldiv@bexp,0
  4096     0235  2A37               	goto	u2651
  4097     0236  2A38               	goto	u2650
  4098     0237                     u2651:
  4099     0237  2A3A               	goto	l1807
  4100     0238                     u2650:
  4101     0238                     l1805:
  4102     0238  17A6               	bsf	___fldiv@b+2,7
  4103     0239  2A3C               	goto	l590
  4104     023A                     l1807:
  4105     023A  307F               	movlw	127
  4106     023B  05A6               	andwf	___fldiv@b+2,f
  4107     023C                     l590:
  4108     023C  0838               	movf	___fldiv@bexp,w
  4109     023D  00A8               	movwf	??___fldiv
  4110     023E  1003               	clrc
  4111     023F  0C28               	rrf	??___fldiv,w
  4112     0240  00A7               	movwf	___fldiv@b+3
  4113     0241  0831               	movf	___fldiv@sign,w
  4114     0242  04A7               	iorwf	___fldiv@b+3,f
  4115     0243  28E6               	goto	l1715
  4116     0244                     l568:
  4117     0244  0008               	return
  4118     0245                     __end_of___fldiv:
  4119                           
  4120                           	psect	text11
  4121     0245                     __ptext11:	
  4122 ;; *************** function ___fladd *****************
  4123 ;; Defined at:
  4124 ;;		line 10 in file "C:\Program Files\Microchip\xc8\v3.00\pic\sources\c99\common\sprcadd.c"
  4125 ;; Parameters:    Size  Location     Type
  4126 ;;  b               4   52[BANK0 ] unsigned char 
  4127 ;;  a               4   56[BANK0 ] unsigned char 
  4128 ;; Auto vars:     Size  Location     Type
  4129 ;;  grs             1   71[BANK0 ] unsigned char 
  4130 ;;  bexp            1   70[BANK0 ] unsigned char 
  4131 ;;  aexp            1   69[BANK0 ] unsigned char 
  4132 ;;  signs           1   68[BANK0 ] unsigned char 
  4133 ;; Return value:  Size  Location     Type
  4134 ;;                  4   52[BANK0 ] unsigned char 
  4135 ;; Registers used:
  4136 ;;		wreg, status,2, status,0, btemp+1
  4137 ;; Tracked objects:
  4138 ;;		On entry : 0/0
  4139 ;;		On exit  : 0/0
  4140 ;;		Unchanged: 0/0
  4141 ;; Data sizes:     COMMON   BANK0   BANK1   BANK3   BANK2
  4142 ;;      Params:         0       8       0       0       0
  4143 ;;      Locals:         0       4       0       0       0
  4144 ;;      Temps:          0       8       0       0       0
  4145 ;;      Totals:         0      20       0       0       0
  4146 ;;Total ram usage:       20 bytes
  4147 ;; Hardware stack levels used: 1
  4148 ;; This function calls:
  4149 ;;		Nothing
  4150 ;; This function is called by:
  4151 ;;		_Scale_Display
  4152 ;; This function uses a non-reentrant model
  4153 ;;
  4154                           
  4155     0245                     ___fladd:	
  4156                           ;psect for function ___fladd
  4157                           
  4158     0245                     l1471:	
  4159                           ;incstack = 0
  4160                           ; Regs used in ___fladd: [wreg+status,2+status,0+btemp+1]
  4161                           
  4162     0245  1283               	bcf	3,5	;RP0=0, select bank0
  4163     0246  1303               	bcf	3,6	;RP1=0, select bank0
  4164     0247  0857               	movf	___fladd@b+3,w
  4165     0248  00E4               	movwf	___fladd@signs
  4166     0249                     l1473:
  4167     0249  3080               	movlw	128
  4168     024A  05E4               	andwf	___fladd@signs,f
  4169     024B                     l1475:
  4170     024B  0857               	movf	___fladd@b+3,w
  4171     024C  00DC               	movwf	??___fladd
  4172     024D  075C               	addwf	??___fladd,w
  4173     024E  00E6               	movwf	___fladd@bexp
  4174     024F                     l1477:
  4175     024F  1FD6               	btfss	___fladd@b+2,7
  4176     0250  2A52               	goto	u1911
  4177     0251  2A53               	goto	u1910
  4178     0252                     u1911:
  4179     0252  2A54               	goto	l1481
  4180     0253                     u1910:
  4181     0253                     l1479:
  4182     0253  1466               	bsf	___fladd@bexp,0
  4183     0254                     l1481:
  4184     0254  0866               	movf	___fladd@bexp,w
  4185     0255  1903               	btfsc	3,2
  4186     0256  2A58               	goto	u1921
  4187     0257  2A59               	goto	u1920
  4188     0258                     u1921:
  4189     0258  2A69               	goto	l1491
  4190     0259                     u1920:
  4191     0259                     l1483:
  4192     0259  0A66               	incf	___fladd@bexp,w
  4193     025A  1D03               	btfss	3,2
  4194     025B  2A5D               	goto	u1931
  4195     025C  2A5E               	goto	u1930
  4196     025D                     u1931:
  4197     025D  2A66               	goto	l1487
  4198     025E                     u1930:
  4199     025E                     l1485:
  4200     025E  3000               	movlw	0
  4201     025F  00D7               	movwf	___fladd@b+3
  4202     0260  3000               	movlw	0
  4203     0261  00D6               	movwf	___fladd@b+2
  4204     0262  3000               	movlw	0
  4205     0263  00D5               	movwf	___fladd@b+1
  4206     0264  3000               	movlw	0
  4207     0265  00D4               	movwf	___fladd@b
  4208     0266                     l1487:
  4209     0266  17D6               	bsf	___fladd@b+2,7
  4210     0267                     l1489:
  4211     0267  01D7               	clrf	___fladd@b+3
  4212     0268  2A71               	goto	l505
  4213     0269                     l1491:
  4214     0269  3000               	movlw	0
  4215     026A  00D7               	movwf	___fladd@b+3
  4216     026B  3000               	movlw	0
  4217     026C  00D6               	movwf	___fladd@b+2
  4218     026D  3000               	movlw	0
  4219     026E  00D5               	movwf	___fladd@b+1
  4220     026F  3000               	movlw	0
  4221     0270  00D4               	movwf	___fladd@b
  4222     0271                     l505:
  4223     0271  085B               	movf	___fladd@a+3,w
  4224     0272  00E5               	movwf	___fladd@aexp
  4225     0273                     l1493:
  4226     0273  3080               	movlw	128
  4227     0274  05E5               	andwf	___fladd@aexp,f
  4228     0275                     l1495:
  4229     0275  0865               	movf	___fladd@aexp,w
  4230     0276  0664               	xorwf	___fladd@signs,w
  4231     0277  1903               	skipnz
  4232     0278  2A7A               	goto	u1941
  4233     0279  2A7B               	goto	u1940
  4234     027A                     u1941:
  4235     027A  2A7C               	goto	l1499
  4236     027B                     u1940:
  4237     027B                     l1497:
  4238     027B  1764               	bsf	___fladd@signs,6
  4239     027C                     l1499:
  4240     027C  085B               	movf	___fladd@a+3,w
  4241     027D  00DC               	movwf	??___fladd
  4242     027E  075C               	addwf	??___fladd,w
  4243     027F  00E5               	movwf	___fladd@aexp
  4244     0280                     l1501:
  4245     0280  1FDA               	btfss	___fladd@a+2,7
  4246     0281  2A83               	goto	u1951
  4247     0282  2A84               	goto	u1950
  4248     0283                     u1951:
  4249     0283  2A85               	goto	l1505
  4250     0284                     u1950:
  4251     0284                     l1503:
  4252     0284  1465               	bsf	___fladd@aexp,0
  4253     0285                     l1505:
  4254     0285  0865               	movf	___fladd@aexp,w
  4255     0286  1903               	btfsc	3,2
  4256     0287  2A89               	goto	u1961
  4257     0288  2A8A               	goto	u1960
  4258     0289                     u1961:
  4259     0289  2A9A               	goto	l1515
  4260     028A                     u1960:
  4261     028A                     l1507:
  4262     028A  0A65               	incf	___fladd@aexp,w
  4263     028B  1D03               	btfss	3,2
  4264     028C  2A8E               	goto	u1971
  4265     028D  2A8F               	goto	u1970
  4266     028E                     u1971:
  4267     028E  2A97               	goto	l1511
  4268     028F                     u1970:
  4269     028F                     l1509:
  4270     028F  3000               	movlw	0
  4271     0290  00DB               	movwf	___fladd@a+3
  4272     0291  3000               	movlw	0
  4273     0292  00DA               	movwf	___fladd@a+2
  4274     0293  3000               	movlw	0
  4275     0294  00D9               	movwf	___fladd@a+1
  4276     0295  3000               	movlw	0
  4277     0296  00D8               	movwf	___fladd@a
  4278     0297                     l1511:
  4279     0297  17DA               	bsf	___fladd@a+2,7
  4280     0298                     l1513:
  4281     0298  01DB               	clrf	___fladd@a+3
  4282     0299  2AA2               	goto	l510
  4283     029A                     l1515:
  4284     029A  3000               	movlw	0
  4285     029B  00DB               	movwf	___fladd@a+3
  4286     029C  3000               	movlw	0
  4287     029D  00DA               	movwf	___fladd@a+2
  4288     029E  3000               	movlw	0
  4289     029F  00D9               	movwf	___fladd@a+1
  4290     02A0  3000               	movlw	0
  4291     02A1  00D8               	movwf	___fladd@a
  4292     02A2                     l510:
  4293     02A2  0866               	movf	___fladd@bexp,w
  4294     02A3  0265               	subwf	___fladd@aexp,w
  4295     02A4  1803               	skipnc
  4296     02A5  2AA7               	goto	u1981
  4297     02A6  2AA8               	goto	u1980
  4298     02A7                     u1981:
  4299     02A7  2ACC               	goto	l1551
  4300     02A8                     u1980:
  4301     02A8                     l1517:
  4302     02A8  1F64               	btfss	___fladd@signs,6
  4303     02A9  2AAB               	goto	u1991
  4304     02AA  2AAC               	goto	u1990
  4305     02AB                     u1991:
  4306     02AB  2AAE               	goto	l1521
  4307     02AC                     u1990:
  4308     02AC                     l1519:
  4309     02AC  3080               	movlw	128
  4310     02AD  06E4               	xorwf	___fladd@signs,f
  4311     02AE                     l1521:
  4312     02AE  0866               	movf	___fladd@bexp,w
  4313     02AF  00E7               	movwf	___fladd@grs
  4314     02B0                     l1523:
  4315     02B0  0865               	movf	___fladd@aexp,w
  4316     02B1  00E6               	movwf	___fladd@bexp
  4317     02B2                     l1525:
  4318     02B2  0867               	movf	___fladd@grs,w
  4319     02B3  00E5               	movwf	___fladd@aexp
  4320     02B4                     l1527:
  4321     02B4  0854               	movf	___fladd@b,w
  4322     02B5  00E7               	movwf	___fladd@grs
  4323     02B6                     l1529:
  4324     02B6  0858               	movf	___fladd@a,w
  4325     02B7  00D4               	movwf	___fladd@b
  4326     02B8                     l1531:
  4327     02B8  0867               	movf	___fladd@grs,w
  4328     02B9  00D8               	movwf	___fladd@a
  4329     02BA                     l1533:
  4330     02BA  0855               	movf	___fladd@b+1,w
  4331     02BB  00E7               	movwf	___fladd@grs
  4332     02BC                     l1535:
  4333     02BC  0859               	movf	___fladd@a+1,w
  4334     02BD  00D5               	movwf	___fladd@b+1
  4335     02BE                     l1537:
  4336     02BE  0867               	movf	___fladd@grs,w
  4337     02BF  00D9               	movwf	___fladd@a+1
  4338     02C0                     l1539:
  4339     02C0  0856               	movf	___fladd@b+2,w
  4340     02C1  00E7               	movwf	___fladd@grs
  4341     02C2                     l1541:
  4342     02C2  085A               	movf	___fladd@a+2,w
  4343     02C3  00D6               	movwf	___fladd@b+2
  4344     02C4                     l1543:
  4345     02C4  0867               	movf	___fladd@grs,w
  4346     02C5  00DA               	movwf	___fladd@a+2
  4347     02C6                     l1545:
  4348     02C6  0857               	movf	___fladd@b+3,w
  4349     02C7  00E7               	movwf	___fladd@grs
  4350     02C8                     l1547:
  4351     02C8  085B               	movf	___fladd@a+3,w
  4352     02C9  00D7               	movwf	___fladd@b+3
  4353     02CA                     l1549:
  4354     02CA  0867               	movf	___fladd@grs,w
  4355     02CB  00DB               	movwf	___fladd@a+3
  4356     02CC                     l1551:
  4357     02CC  01E7               	clrf	___fladd@grs
  4358     02CD                     l1553:
  4359     02CD  0865               	movf	___fladd@aexp,w
  4360     02CE  00DC               	movwf	??___fladd
  4361     02CF  01DD               	clrf	??___fladd+1
  4362     02D0  085D               	movf	??___fladd+1,w
  4363     02D1  00DF               	movwf	??___fladd+3
  4364     02D2  0866               	movf	___fladd@bexp,w
  4365     02D3  025C               	subwf	??___fladd,w
  4366     02D4  00DE               	movwf	??___fladd+2
  4367     02D5  1C03               	skipc
  4368     02D6  03DF               	decf	??___fladd+3,f
  4369     02D7  085F               	movf	??___fladd+3,w
  4370     02D8  3A80               	xorlw	128
  4371     02D9  00FF               	movwf	btemp+1
  4372     02DA  3080               	movlw	128
  4373     02DB  027F               	subwf	btemp+1,w
  4374     02DC  1D03               	skipz
  4375     02DD  2AE0               	goto	u2005
  4376     02DE  301A               	movlw	26
  4377     02DF  025E               	subwf	??___fladd+2,w
  4378     02E0                     u2005:
  4379     02E0  1C03               	skipc
  4380     02E1  2AE3               	goto	u2001
  4381     02E2  2AE4               	goto	u2000
  4382     02E3                     u2001:
  4383     02E3  2B19               	goto	l1569
  4384     02E4                     u2000:
  4385     02E4                     l1555:
  4386     02E4  1283               	bcf	3,5	;RP0=0, select bank0
  4387     02E5  1303               	bcf	3,6	;RP1=0, select bank0
  4388     02E6  0857               	movf	___fladd@b+3,w
  4389     02E7  0456               	iorwf	___fladd@b+2,w
  4390     02E8  0455               	iorwf	___fladd@b+1,w
  4391     02E9  0454               	iorwf	___fladd@b,w
  4392     02EA  1D03               	skipz
  4393     02EB  2AED               	goto	u2011
  4394     02EC  2AEF               	goto	u2010
  4395     02ED                     u2011:
  4396     02ED  3001               	movlw	1
  4397     02EE  2AF0               	goto	u2020
  4398     02EF                     u2010:
  4399     02EF  3000               	movlw	0
  4400     02F0                     u2020:
  4401     02F0  00E7               	movwf	___fladd@grs
  4402     02F1  3000               	movlw	0
  4403     02F2  00D7               	movwf	___fladd@b+3
  4404     02F3  3000               	movlw	0
  4405     02F4  00D6               	movwf	___fladd@b+2
  4406     02F5  3000               	movlw	0
  4407     02F6  00D5               	movwf	___fladd@b+1
  4408     02F7  3000               	movlw	0
  4409     02F8  00D4               	movwf	___fladd@b
  4410     02F9  0865               	movf	___fladd@aexp,w
  4411     02FA  00E6               	movwf	___fladd@bexp
  4412     02FB  2B21               	goto	l514
  4413     02FC                     l516:
  4414     02FC  1C67               	btfss	___fladd@grs,0
  4415     02FD  2AFF               	goto	u2031
  4416     02FE  2B00               	goto	u2030
  4417     02FF                     u2031:
  4418     02FF  2B07               	goto	l1559
  4419     0300                     u2030:
  4420     0300                     l1557:
  4421     0300  0867               	movf	___fladd@grs,w
  4422     0301  00DC               	movwf	??___fladd
  4423     0302  1003               	clrc
  4424     0303  0C5C               	rrf	??___fladd,w
  4425     0304  3801               	iorlw	1
  4426     0305  00E7               	movwf	___fladd@grs
  4427     0306  2B09               	goto	l1561
  4428     0307                     l1559:
  4429     0307  1003               	clrc
  4430     0308  0CE7               	rrf	___fladd@grs,f
  4431     0309                     l1561:
  4432     0309  1C54               	btfss	___fladd@b,0
  4433     030A  2B0C               	goto	u2041
  4434     030B  2B0D               	goto	u2040
  4435     030C                     u2041:
  4436     030C  2B0E               	goto	l1565
  4437     030D                     u2040:
  4438     030D                     l1563:
  4439     030D  17E7               	bsf	___fladd@grs,7
  4440     030E                     l1565:
  4441     030E  3001               	movlw	1
  4442     030F  00DC               	movwf	??___fladd
  4443     0310                     u2055:
  4444     0310  0D57               	rlf	___fladd@b+3,w
  4445     0311  0CD7               	rrf	___fladd@b+3,f
  4446     0312  0CD6               	rrf	___fladd@b+2,f
  4447     0313  0CD5               	rrf	___fladd@b+1,f
  4448     0314  0CD4               	rrf	___fladd@b,f
  4449     0315  0BDC               	decfsz	??___fladd& (0+127),f
  4450     0316  2B10               	goto	u2055
  4451     0317                     l1567:
  4452     0317  3001               	movlw	1
  4453     0318  07E6               	addwf	___fladd@bexp,f
  4454     0319                     l1569:
  4455     0319  1283               	bcf	3,5	;RP0=0, select bank0
  4456     031A  1303               	bcf	3,6	;RP1=0, select bank0
  4457     031B  0865               	movf	___fladd@aexp,w
  4458     031C  0266               	subwf	___fladd@bexp,w
  4459     031D  1C03               	skipc
  4460     031E  2B20               	goto	u2061
  4461     031F  2B21               	goto	u2060
  4462     0320                     u2061:
  4463     0320  2AFC               	goto	l516
  4464     0321                     u2060:
  4465     0321                     l514:
  4466     0321  1B64               	btfsc	___fladd@signs,6
  4467     0322  2B24               	goto	u2071
  4468     0323  2B25               	goto	u2070
  4469     0324                     u2071:
  4470     0324  2B6C               	goto	l1595
  4471     0325                     u2070:
  4472     0325                     l1571:
  4473     0325  0866               	movf	___fladd@bexp,w
  4474     0326  1D03               	btfss	3,2
  4475     0327  2B29               	goto	u2081
  4476     0328  2B2A               	goto	u2080
  4477     0329                     u2081:
  4478     0329  2B33               	goto	l1577
  4479     032A                     u2080:
  4480     032A                     l1573:
  4481     032A  3000               	movlw	0
  4482     032B  00D7               	movwf	?___fladd+3
  4483     032C  3000               	movlw	0
  4484     032D  00D6               	movwf	?___fladd+2
  4485     032E  3000               	movlw	0
  4486     032F  00D5               	movwf	?___fladd+1
  4487     0330  3000               	movlw	0
  4488     0331  00D4               	movwf	?___fladd
  4489     0332  2C94               	goto	l523
  4490     0333                     l1577:
  4491     0333  0858               	movf	___fladd@a,w
  4492     0334  07D4               	addwf	___fladd@b,f
  4493     0335  0859               	movf	___fladd@a+1,w
  4494     0336  1103               	clrz
  4495     0337  1803               	skipnc
  4496     0338  3E01               	addlw	1
  4497     0339  1903               	skipnz
  4498     033A  2B3C               	goto	u2091
  4499     033B  07D5               	addwf	___fladd@b+1,f
  4500     033C                     u2091:
  4501     033C  085A               	movf	___fladd@a+2,w
  4502     033D  1103               	clrz
  4503     033E  1803               	skipnc
  4504     033F  3E01               	addlw	1
  4505     0340  1903               	skipnz
  4506     0341  2B43               	goto	u2092
  4507     0342  07D6               	addwf	___fladd@b+2,f
  4508     0343                     u2092:
  4509     0343  085B               	movf	___fladd@a+3,w
  4510     0344  1103               	clrz
  4511     0345  1803               	skipnc
  4512     0346  3E01               	addlw	1
  4513     0347  1903               	skipnz
  4514     0348  2B4A               	goto	u2093
  4515     0349  07D7               	addwf	___fladd@b+3,f
  4516     034A                     u2093:
  4517     034A                     l1579:
  4518     034A  1C57               	btfss	___fladd@b+3,0
  4519     034B  2B4D               	goto	u2101
  4520     034C  2B4E               	goto	u2100
  4521     034D                     u2101:
  4522     034D  2C20               	goto	l1631
  4523     034E                     u2100:
  4524     034E                     l1581:
  4525     034E  1C67               	btfss	___fladd@grs,0
  4526     034F  2B51               	goto	u2111
  4527     0350  2B52               	goto	u2110
  4528     0351                     u2111:
  4529     0351  2B59               	goto	l1585
  4530     0352                     u2110:
  4531     0352                     l1583:
  4532     0352  0867               	movf	___fladd@grs,w
  4533     0353  00DC               	movwf	??___fladd
  4534     0354  1003               	clrc
  4535     0355  0C5C               	rrf	??___fladd,w
  4536     0356  3801               	iorlw	1
  4537     0357  00E7               	movwf	___fladd@grs
  4538     0358  2B5B               	goto	l1587
  4539     0359                     l1585:
  4540     0359  1003               	clrc
  4541     035A  0CE7               	rrf	___fladd@grs,f
  4542     035B                     l1587:
  4543     035B  1C54               	btfss	___fladd@b,0
  4544     035C  2B5E               	goto	u2121
  4545     035D  2B5F               	goto	u2120
  4546     035E                     u2121:
  4547     035E  2B60               	goto	l1591
  4548     035F                     u2120:
  4549     035F                     l1589:
  4550     035F  17E7               	bsf	___fladd@grs,7
  4551     0360                     l1591:
  4552     0360  3001               	movlw	1
  4553     0361  00DC               	movwf	??___fladd
  4554     0362                     u2135:
  4555     0362  0D57               	rlf	___fladd@b+3,w
  4556     0363  0CD7               	rrf	___fladd@b+3,f
  4557     0364  0CD6               	rrf	___fladd@b+2,f
  4558     0365  0CD5               	rrf	___fladd@b+1,f
  4559     0366  0CD4               	rrf	___fladd@b,f
  4560     0367  0BDC               	decfsz	??___fladd& (0+127),f
  4561     0368  2B62               	goto	u2135
  4562     0369                     l1593:
  4563     0369  3001               	movlw	1
  4564     036A  07E6               	addwf	___fladd@bexp,f
  4565     036B  2C20               	goto	l1631
  4566     036C                     l1595:
  4567     036C  0857               	movf	___fladd@b+3,w
  4568     036D  3A80               	xorlw	128
  4569     036E  00FF               	movwf	btemp+1
  4570     036F  085B               	movf	___fladd@a+3,w
  4571     0370  3A80               	xorlw	128
  4572     0371  027F               	subwf	btemp+1,w
  4573     0372  1D03               	skipz
  4574     0373  2B7E               	goto	u2143
  4575     0374  085A               	movf	___fladd@a+2,w
  4576     0375  0256               	subwf	___fladd@b+2,w
  4577     0376  1D03               	skipz
  4578     0377  2B7E               	goto	u2143
  4579     0378  0859               	movf	___fladd@a+1,w
  4580     0379  0255               	subwf	___fladd@b+1,w
  4581     037A  1D03               	skipz
  4582     037B  2B7E               	goto	u2143
  4583     037C  0858               	movf	___fladd@a,w
  4584     037D  0254               	subwf	___fladd@b,w
  4585     037E                     u2143:
  4586     037E  1803               	skipnc
  4587     037F  2B81               	goto	u2141
  4588     0380  2B82               	goto	u2140
  4589     0381                     u2141:
  4590     0381  2BD9               	goto	l1607
  4591     0382                     u2140:
  4592     0382                     l1597:
  4593     0382  30FF               	movlw	255
  4594     0383  00DC               	movwf	??___fladd
  4595     0384  30FF               	movlw	255
  4596     0385  00DD               	movwf	??___fladd+1
  4597     0386  30FF               	movlw	255
  4598     0387  00DE               	movwf	??___fladd+2
  4599     0388  30FF               	movlw	255
  4600     0389  00DF               	movwf	??___fladd+3
  4601     038A  0858               	movf	___fladd@a,w
  4602     038B  00E0               	movwf	??___fladd+4
  4603     038C  0859               	movf	___fladd@a+1,w
  4604     038D  00E1               	movwf	??___fladd+5
  4605     038E  085A               	movf	___fladd@a+2,w
  4606     038F  00E2               	movwf	??___fladd+6
  4607     0390  085B               	movf	___fladd@a+3,w
  4608     0391  00E3               	movwf	??___fladd+7
  4609     0392  0854               	movf	___fladd@b,w
  4610     0393  02E0               	subwf	??___fladd+4,f
  4611     0394  0855               	movf	___fladd@b+1,w
  4612     0395  1C03               	skipc
  4613     0396  0F55               	incfsz	___fladd@b+1,w
  4614     0397  2B99               	goto	u2151
  4615     0398  2B9A               	goto	u2152
  4616     0399                     u2151:
  4617     0399  02E1               	subwf	??___fladd+5,f
  4618     039A                     u2152:
  4619     039A  0856               	movf	___fladd@b+2,w
  4620     039B  1C03               	skipc
  4621     039C  0F56               	incfsz	___fladd@b+2,w
  4622     039D  2B9F               	goto	u2153
  4623     039E  2BA0               	goto	u2154
  4624     039F                     u2153:
  4625     039F  02E2               	subwf	??___fladd+6,f
  4626     03A0                     u2154:
  4627     03A0  0857               	movf	___fladd@b+3,w
  4628     03A1  1C03               	skipc
  4629     03A2  0F57               	incfsz	___fladd@b+3,w
  4630     03A3  2BA5               	goto	u2155
  4631     03A4  2BA6               	goto	u2156
  4632     03A5                     u2155:
  4633     03A5  02E3               	subwf	??___fladd+7,f
  4634     03A6                     u2156:
  4635     03A6  0860               	movf	??___fladd+4,w
  4636     03A7  07DC               	addwf	??___fladd,f
  4637     03A8  0861               	movf	??___fladd+5,w
  4638     03A9  1803               	skipnc
  4639     03AA  0F61               	incfsz	??___fladd+5,w
  4640     03AB  2BAD               	goto	u2160
  4641     03AC  2BAE               	goto	u2161
  4642     03AD                     u2160:
  4643     03AD  07DD               	addwf	??___fladd+1,f
  4644     03AE                     u2161:
  4645     03AE  0862               	movf	??___fladd+6,w
  4646     03AF  1803               	skipnc
  4647     03B0  0F62               	incfsz	??___fladd+6,w
  4648     03B1  2BB3               	goto	u2162
  4649     03B2  2BB4               	goto	u2163
  4650     03B3                     u2162:
  4651     03B3  07DE               	addwf	??___fladd+2,f
  4652     03B4                     u2163:
  4653     03B4  0863               	movf	??___fladd+7,w
  4654     03B5  1803               	skipnc
  4655     03B6  0A63               	incf	??___fladd+7,w
  4656     03B7  07DF               	addwf	??___fladd+3,f
  4657     03B8  085F               	movf	??___fladd+3,w
  4658     03B9  00D7               	movwf	___fladd@b+3
  4659     03BA  085E               	movf	??___fladd+2,w
  4660     03BB  00D6               	movwf	___fladd@b+2
  4661     03BC  085D               	movf	??___fladd+1,w
  4662     03BD  00D5               	movwf	___fladd@b+1
  4663     03BE  085C               	movf	??___fladd,w
  4664     03BF  00D4               	movwf	___fladd@b
  4665     03C0                     l1599:
  4666     03C0  3080               	movlw	128
  4667     03C1  06E4               	xorwf	___fladd@signs,f
  4668     03C2                     l1601:
  4669     03C2  0367               	decf	___fladd@grs,w
  4670     03C3  3AFF               	xorlw	255
  4671     03C4  00E7               	movwf	___fladd@grs
  4672     03C5                     l1603:
  4673     03C5  0867               	movf	___fladd@grs,w
  4674     03C6  1D03               	btfss	3,2
  4675     03C7  2BC9               	goto	u2171
  4676     03C8  2BCA               	goto	u2170
  4677     03C9                     u2171:
  4678     03C9  2BE7               	goto	l531
  4679     03CA                     u2170:
  4680     03CA                     l1605:
  4681     03CA  3001               	movlw	1
  4682     03CB  07D4               	addwf	___fladd@b,f
  4683     03CC  3000               	movlw	0
  4684     03CD  1803               	skipnc
  4685     03CE  3001               	movlw	1
  4686     03CF  07D5               	addwf	___fladd@b+1,f
  4687     03D0  3000               	movlw	0
  4688     03D1  1803               	skipnc
  4689     03D2  3001               	movlw	1
  4690     03D3  07D6               	addwf	___fladd@b+2,f
  4691     03D4  3000               	movlw	0
  4692     03D5  1803               	skipnc
  4693     03D6  3001               	movlw	1
  4694     03D7  07D7               	addwf	___fladd@b+3,f
  4695     03D8  2BE7               	goto	l531
  4696     03D9                     l1607:
  4697     03D9  0858               	movf	___fladd@a,w
  4698     03DA  02D4               	subwf	___fladd@b,f
  4699     03DB  0859               	movf	___fladd@a+1,w
  4700     03DC  1C03               	skipc
  4701     03DD  0F59               	incfsz	___fladd@a+1,w
  4702     03DE  02D5               	subwf	___fladd@b+1,f
  4703     03DF  085A               	movf	___fladd@a+2,w
  4704     03E0  1C03               	skipc
  4705     03E1  0F5A               	incfsz	___fladd@a+2,w
  4706     03E2  02D6               	subwf	___fladd@b+2,f
  4707     03E3  085B               	movf	___fladd@a+3,w
  4708     03E4  1C03               	skipc
  4709     03E5  0F5B               	incfsz	___fladd@a+3,w
  4710     03E6  02D7               	subwf	___fladd@b+3,f
  4711     03E7                     l531:
  4712     03E7  0857               	movf	___fladd@b+3,w
  4713     03E8  0456               	iorwf	___fladd@b+2,w
  4714     03E9  0455               	iorwf	___fladd@b+1,w
  4715     03EA  0454               	iorwf	___fladd@b,w
  4716     03EB  1D03               	skipz
  4717     03EC  2BEE               	goto	u2181
  4718     03ED  2BEF               	goto	u2180
  4719     03EE                     u2181:
  4720     03EE  2C1C               	goto	l1629
  4721     03EF                     u2180:
  4722     03EF                     l1609:
  4723     03EF  0867               	movf	___fladd@grs,w
  4724     03F0  1D03               	btfss	3,2
  4725     03F1  2BF3               	goto	u2191
  4726     03F2  2BF4               	goto	u2190
  4727     03F3                     u2191:
  4728     03F3  2C1C               	goto	l1629
  4729     03F4                     u2190:
  4730     03F4                     l1611:
  4731     03F4  3000               	movlw	0
  4732     03F5  00D7               	movwf	?___fladd+3
  4733     03F6  3000               	movlw	0
  4734     03F7  00D6               	movwf	?___fladd+2
  4735     03F8  3000               	movlw	0
  4736     03F9  00D5               	movwf	?___fladd+1
  4737     03FA  3000               	movlw	0
  4738     03FB  00D4               	movwf	?___fladd
  4739     03FC  2C94               	goto	l523
  4740     03FD                     l1615:
  4741     03FD  3001               	movlw	1
  4742     03FE  00DC               	movwf	??___fladd
  4743     03FF                     u2205:
  4744     03FF  1003               	clrc
  4745     0400  0DD4               	rlf	___fladd@b,f
  4746     0401  0DD5               	rlf	___fladd@b+1,f
  4747     0402  0DD6               	rlf	___fladd@b+2,f
  4748     0403  0DD7               	rlf	___fladd@b+3,f
  4749     0404  0BDC               	decfsz	??___fladd,f
  4750     0405  2BFF               	goto	u2205
  4751     0406                     l1617:
  4752     0406  1FE7               	btfss	___fladd@grs,7
  4753     0407  2C09               	goto	u2211
  4754     0408  2C0A               	goto	u2210
  4755     0409                     u2211:
  4756     0409  2C0B               	goto	l535
  4757     040A                     u2210:
  4758     040A                     l1619:
  4759     040A  1454               	bsf	___fladd@b,0
  4760     040B                     l535:
  4761     040B  1C67               	btfss	___fladd@grs,0
  4762     040C  2C0E               	goto	u2221
  4763     040D  2C0F               	goto	u2220
  4764     040E                     u2221:
  4765     040E  2C13               	goto	l1623
  4766     040F                     u2220:
  4767     040F                     l1621:
  4768     040F  1403               	setc
  4769     0410  0D67               	rlf	___fladd@grs,w
  4770     0411  00E7               	movwf	___fladd@grs
  4771     0412  2C15               	goto	l1625
  4772     0413                     l1623:
  4773     0413  1003               	clrc
  4774     0414  0DE7               	rlf	___fladd@grs,f
  4775     0415                     l1625:
  4776     0415  0866               	movf	___fladd@bexp,w
  4777     0416  1903               	btfsc	3,2
  4778     0417  2C19               	goto	u2231
  4779     0418  2C1A               	goto	u2230
  4780     0419                     u2231:
  4781     0419  2C1C               	goto	l1629
  4782     041A                     u2230:
  4783     041A                     l1627:
  4784     041A  3001               	movlw	1
  4785     041B  02E6               	subwf	___fladd@bexp,f
  4786     041C                     l1629:
  4787     041C  1FD6               	btfss	___fladd@b+2,7
  4788     041D  2C1F               	goto	u2241
  4789     041E  2C20               	goto	u2240
  4790     041F                     u2241:
  4791     041F  2BFD               	goto	l1615
  4792     0420                     u2240:
  4793     0420                     l1631:
  4794     0420  01E5               	clrf	___fladd@aexp
  4795     0421                     l1633:
  4796     0421  1FE7               	btfss	___fladd@grs,7
  4797     0422  2C24               	goto	u2251
  4798     0423  2C25               	goto	u2250
  4799     0424                     u2251:
  4800     0424  2C33               	goto	l1641
  4801     0425                     u2250:
  4802     0425                     l1635:
  4803     0425  0867               	movf	___fladd@grs,w
  4804     0426  397F               	andlw	127
  4805     0427  1903               	btfsc	3,2
  4806     0428  2C2A               	goto	u2261
  4807     0429  2C2B               	goto	u2260
  4808     042A                     u2261:
  4809     042A  2C2E               	goto	l541
  4810     042B                     u2260:
  4811     042B                     l1637:
  4812     042B  3001               	movlw	1
  4813     042C  00E5               	movwf	___fladd@aexp
  4814     042D  2C33               	goto	l1641
  4815     042E                     l541:
  4816     042E  1C54               	btfss	___fladd@b,0
  4817     042F  2C31               	goto	u2271
  4818     0430  2C32               	goto	u2270
  4819     0431                     u2271:
  4820     0431  2C33               	goto	l1641
  4821     0432                     u2270:
  4822     0432  2C2B               	goto	l1637
  4823     0433                     l1641:
  4824     0433  0865               	movf	___fladd@aexp,w
  4825     0434  1903               	btfsc	3,2
  4826     0435  2C37               	goto	u2281
  4827     0436  2C38               	goto	u2280
  4828     0437                     u2281:
  4829     0437  2C6A               	goto	l544
  4830     0438                     u2280:
  4831     0438                     l1643:
  4832     0438  3001               	movlw	1
  4833     0439  07D4               	addwf	___fladd@b,f
  4834     043A  3000               	movlw	0
  4835     043B  1803               	skipnc
  4836     043C  3001               	movlw	1
  4837     043D  07D5               	addwf	___fladd@b+1,f
  4838     043E  3000               	movlw	0
  4839     043F  1803               	skipnc
  4840     0440  3001               	movlw	1
  4841     0441  07D6               	addwf	___fladd@b+2,f
  4842     0442  3000               	movlw	0
  4843     0443  1803               	skipnc
  4844     0444  3001               	movlw	1
  4845     0445  07D7               	addwf	___fladd@b+3,f
  4846     0446                     l1645:
  4847     0446  1C57               	btfss	___fladd@b+3,0
  4848     0447  2C49               	goto	u2291
  4849     0448  2C4A               	goto	u2290
  4850     0449                     u2291:
  4851     0449  2C6A               	goto	l544
  4852     044A                     u2290:
  4853     044A                     l1647:
  4854     044A  0854               	movf	___fladd@b,w
  4855     044B  00DC               	movwf	??___fladd
  4856     044C  0855               	movf	___fladd@b+1,w
  4857     044D  00DD               	movwf	??___fladd+1
  4858     044E  0856               	movf	___fladd@b+2,w
  4859     044F  00DE               	movwf	??___fladd+2
  4860     0450  0857               	movf	___fladd@b+3,w
  4861     0451  00DF               	movwf	??___fladd+3
  4862     0452  3001               	movlw	1
  4863     0453  00E0               	movwf	??___fladd+4
  4864     0454                     u2305:
  4865     0454  0D5F               	rlf	??___fladd+3,w
  4866     0455  0CDF               	rrf	??___fladd+3,f
  4867     0456  0CDE               	rrf	??___fladd+2,f
  4868     0457  0CDD               	rrf	??___fladd+1,f
  4869     0458  0CDC               	rrf	??___fladd,f
  4870     0459                     u2300:
  4871     0459  0BE0               	decfsz	??___fladd+4,f
  4872     045A  2C54               	goto	u2305
  4873     045B  085F               	movf	??___fladd+3,w
  4874     045C  00D7               	movwf	___fladd@b+3
  4875     045D  085E               	movf	??___fladd+2,w
  4876     045E  00D6               	movwf	___fladd@b+2
  4877     045F  085D               	movf	??___fladd+1,w
  4878     0460  00D5               	movwf	___fladd@b+1
  4879     0461  085C               	movf	??___fladd,w
  4880     0462  00D4               	movwf	___fladd@b
  4881     0463  0A66               	incf	___fladd@bexp,w
  4882     0464  1903               	btfsc	3,2
  4883     0465  2C67               	goto	u2311
  4884     0466  2C68               	goto	u2310
  4885     0467                     u2311:
  4886     0467  2C6A               	goto	l544
  4887     0468                     u2310:
  4888     0468                     l1649:
  4889     0468  3001               	movlw	1
  4890     0469  07E6               	addwf	___fladd@bexp,f
  4891     046A                     l544:
  4892     046A  0A66               	incf	___fladd@bexp,w
  4893     046B  1903               	btfsc	3,2
  4894     046C  2C6E               	goto	u2321
  4895     046D  2C6F               	goto	u2320
  4896     046E                     u2321:
  4897     046E  2C74               	goto	l1653
  4898     046F                     u2320:
  4899     046F                     l1651:
  4900     046F  0866               	movf	___fladd@bexp,w
  4901     0470  1D03               	btfss	3,2
  4902     0471  2C73               	goto	u2331
  4903     0472  2C74               	goto	u2330
  4904     0473                     u2331:
  4905     0473  2C82               	goto	l1659
  4906     0474                     u2330:
  4907     0474                     l1653:
  4908     0474  3000               	movlw	0
  4909     0475  00D7               	movwf	___fladd@b+3
  4910     0476  3000               	movlw	0
  4911     0477  00D6               	movwf	___fladd@b+2
  4912     0478  3000               	movlw	0
  4913     0479  00D5               	movwf	___fladd@b+1
  4914     047A  3000               	movlw	0
  4915     047B  00D4               	movwf	___fladd@b
  4916     047C                     l1655:
  4917     047C  0866               	movf	___fladd@bexp,w
  4918     047D  1D03               	btfss	3,2
  4919     047E  2C80               	goto	u2341
  4920     047F  2C81               	goto	u2340
  4921     0480                     u2341:
  4922     0480  2C82               	goto	l1659
  4923     0481                     u2340:
  4924     0481                     l1657:
  4925     0481  01E4               	clrf	___fladd@signs
  4926     0482                     l1659:
  4927     0482  1C66               	btfss	___fladd@bexp,0
  4928     0483  2C85               	goto	u2351
  4929     0484  2C86               	goto	u2350
  4930     0485                     u2351:
  4931     0485  2C88               	goto	l1663
  4932     0486                     u2350:
  4933     0486                     l1661:
  4934     0486  17D6               	bsf	___fladd@b+2,7
  4935     0487  2C8A               	goto	l552
  4936     0488                     l1663:
  4937     0488  307F               	movlw	127
  4938     0489  05D6               	andwf	___fladd@b+2,f
  4939     048A                     l552:
  4940     048A  0866               	movf	___fladd@bexp,w
  4941     048B  00DC               	movwf	??___fladd
  4942     048C  1003               	clrc
  4943     048D  0C5C               	rrf	??___fladd,w
  4944     048E  00D7               	movwf	___fladd@b+3
  4945     048F                     l1665:
  4946     048F  1FE4               	btfss	___fladd@signs,7
  4947     0490  2C92               	goto	u2361
  4948     0491  2C93               	goto	u2360
  4949     0492                     u2361:
  4950     0492  2C94               	goto	l553
  4951     0493                     u2360:
  4952     0493                     l1667:
  4953     0493  17D7               	bsf	___fladd@b+3,7
  4954     0494                     l553:
  4955     0494                     l523:
  4956     0494  0008               	return
  4957     0495                     __end_of___fladd:
  4958                           
  4959                           	psect	text12
  4960     0BAE                     __ptext12:	
  4961 ;; *************** function _Read_ADC *****************
  4962 ;; Defined at:
  4963 ;;		line 16 in file "../flowmeter5_main.c"
  4964 ;; Parameters:    Size  Location     Type
  4965 ;;		None
  4966 ;; Auto vars:     Size  Location     Type
  4967 ;;		None
  4968 ;; Return value:  Size  Location     Type
  4969 ;;                  2    0[COMMON] unsigned int 
  4970 ;; Registers used:
  4971 ;;		wreg
  4972 ;; Tracked objects:
  4973 ;;		On entry : 0/0
  4974 ;;		On exit  : 0/0
  4975 ;;		Unchanged: 0/0
  4976 ;; Data sizes:     COMMON   BANK0   BANK1   BANK3   BANK2
  4977 ;;      Params:         2       0       0       0       0
  4978 ;;      Locals:         0       0       0       0       0
  4979 ;;      Temps:          1       0       0       0       0
  4980 ;;      Totals:         3       0       0       0       0
  4981 ;;Total ram usage:        3 bytes
  4982 ;; Hardware stack levels used: 1
  4983 ;; This function calls:
  4984 ;;		Nothing
  4985 ;; This function is called by:
  4986 ;;		_main
  4987 ;; This function uses a non-reentrant model
  4988 ;;
  4989                           
  4990     0BAE                     _Read_ADC:	
  4991                           ;psect for function _Read_ADC
  4992                           
  4993     0BAE                     l2001:	
  4994                           ;incstack = 0
  4995                           ; Regs used in _Read_ADC: [wreg]
  4996                           
  4997                           
  4998                           ;../flowmeter5_main.c: 17:     _delay((unsigned long)((10)*(8000000/4000000.0)));
  4999     0BAE  3006               	movlw	6
  5000     0BAF  00F2               	movwf	??_Read_ADC
  5001     0BB0                     u3307:
  5002     0BB0  0BF2               	decfsz	??_Read_ADC,f
  5003     0BB1  2BB0               	goto	u3307
  5004     0BB2  0000               	nop
  5005     0BB3                     l2003:
  5006                           
  5007                           ;../flowmeter5_main.c: 18:     GO_nDONE = 1;
  5008     0BB3  1283               	bcf	3,5	;RP0=0, select bank0
  5009     0BB4  1303               	bcf	3,6	;RP1=0, select bank0
  5010     0BB5  149F               	bsf	31,1	;volatile
  5011     0BB6                     l82:	
  5012                           ;../flowmeter5_main.c: 19:     while (GO_nDONE);
  5013                           
  5014     0BB6  189F               	btfsc	31,1	;volatile
  5015     0BB7  2BB9               	goto	u3171
  5016     0BB8  2BBA               	goto	u3170
  5017     0BB9                     u3171:
  5018     0BB9  2BB6               	goto	l82
  5019     0BBA                     u3170:
  5020     0BBA                     l2005:
  5021                           
  5022                           ;../flowmeter5_main.c: 20:   return ((unsigned int)(ADRESH << 8) | ADRESL);
  5023     0BBA  081E               	movf	30,w	;volatile
  5024     0BBB  00F1               	movwf	?_Read_ADC+1
  5025     0BBC  1683               	bsf	3,5	;RP0=1, select bank1
  5026     0BBD  1303               	bcf	3,6	;RP1=0, select bank1
  5027     0BBE  081E               	movf	30,w	;volatile
  5028     0BBF  00F0               	movwf	?_Read_ADC
  5029     0BC0                     l85:
  5030     0BC0  0008               	return
  5031     0BC1                     __end_of_Read_ADC:
  5032                           
  5033                           	psect	text13
  5034     0BA6                     __ptext13:	
  5035 ;; *************** function _ADC_Init *****************
  5036 ;; Defined at:
  5037 ;;		line 10 in file "../flowmeter5_main.c"
  5038 ;; Parameters:    Size  Location     Type
  5039 ;;		None
  5040 ;; Auto vars:     Size  Location     Type
  5041 ;;		None
  5042 ;; Return value:  Size  Location     Type
  5043 ;;                  1    wreg      void 
  5044 ;; Registers used:
  5045 ;;		status,2
  5046 ;; Tracked objects:
  5047 ;;		On entry : 0/0
  5048 ;;		On exit  : 0/0
  5049 ;;		Unchanged: 0/0
  5050 ;; Data sizes:     COMMON   BANK0   BANK1   BANK3   BANK2
  5051 ;;      Params:         0       0       0       0       0
  5052 ;;      Locals:         0       0       0       0       0
  5053 ;;      Temps:          0       0       0       0       0
  5054 ;;      Totals:         0       0       0       0       0
  5055 ;;Total ram usage:        0 bytes
  5056 ;; Hardware stack levels used: 1
  5057 ;; This function calls:
  5058 ;;		Nothing
  5059 ;; This function is called by:
  5060 ;;		_main
  5061 ;; This function uses a non-reentrant model
  5062 ;;
  5063                           
  5064     0BA6                     _ADC_Init:	
  5065                           ;psect for function _ADC_Init
  5066                           
  5067     0BA6                     l1997:	
  5068                           ;incstack = 0
  5069                           ; Regs used in _ADC_Init: [status,2]
  5070                           
  5071                           
  5072                           ;../flowmeter5_main.c: 11:     ADCON0 = 0b00000001;
  5073     0BA6  3001               	movlw	1
  5074     0BA7  1283               	bcf	3,5	;RP0=0, select bank0
  5075     0BA8  1303               	bcf	3,6	;RP1=0, select bank0
  5076     0BA9  009F               	movwf	31	;volatile
  5077     0BAA                     l1999:
  5078                           
  5079                           ;../flowmeter5_main.c: 12:     ADCON1 = 0b00000000;
  5080     0BAA  1683               	bsf	3,5	;RP0=1, select bank1
  5081     0BAB  1303               	bcf	3,6	;RP1=0, select bank1
  5082     0BAC  019F               	clrf	31	;volatile
  5083     0BAD                     l79:
  5084     0BAD  0008               	return
  5085     0BAE                     __end_of_ADC_Init:
  5086     0002                     ___latbits      equ	2
  5087     007E                     btemp           set	126	;btemp
  5088     007E                     wtemp0          set	126

Data Sizes:
    Strings     0
    Constant    18
    Data        33
    BSS         23
    Persistent  4
    Stack       0

Auto Spaces:
    Space          Size  Autos    Used
    COMMON           14     14      14
    BANK0            80     80      80
    BANK1            80     55      79
    BANK3            96      0      36
    BANK2            96      0       0

Pointer List with Targets:

    Send_LED_Data@digits	PTR unsigned char  size(1) Largest target is 4
		 -> digit_val(BANK1[4]), main@blank(BANK1[4]), 

    Split_Display@digits	PTR unsigned char  size(1) Largest target is 4
		 -> digit_val(BANK1[4]), 


Critical Paths under _main in COMMON

    _Split_Display->___lwmod
    ___lwmod->___lwdiv
    _Scale_Display->___xxtofl
    ___flmul->___xxtofl
    ___fldiv->___xxtofl
    ___fladd->___xxtofl

Critical Paths under _main in BANK0

    _Scale_Display->___fltol
    ___fltol->___fladd
    ___flmul->___fldiv
    ___fladd->___flmul

Critical Paths under _main in BANK1

    _main->_Scale_Display
    _Scale_Display->___fltol

Critical Paths under _main in BANK3

    None.

Critical Paths under _main in BANK2

    None.

Call Graph Tables:

 ---------------------------------------------------------------------------------
 (Depth) Function   	        Calls       Base Space   Used Autos Params    Refs
 ---------------------------------------------------------------------------------
 (0) _main                                                 6     6      0    6066
                                             49 BANK1      6     6      0
                           _ADC_Init
                           _Read_ADC
                      _Scale_Display
                      _Send_LED_Data
                      _Split_Display
 ---------------------------------------------------------------------------------
 (1) _Split_Display                                        3     0      3     513
                                              0 BANK0      3     0      3
                            ___lwdiv
                            ___lwmod
 ---------------------------------------------------------------------------------
 (2) ___lwmod                                              5     1      4     165
                                              7 COMMON     5     1      4
                            ___lwdiv (ARG)
 ---------------------------------------------------------------------------------
 (2) ___lwdiv                                              7     3      4     168
                                              0 COMMON     7     3      4
 ---------------------------------------------------------------------------------
 (2) _Send_LED_Data                                        5     3      2     118
                                              0 COMMON     5     3      2
 ---------------------------------------------------------------------------------
 (1) _Scale_Display                                       47    44      3    5411
                                              2 BANK1     47    44      3
                            ___fladd
                            ___fldiv
                            ___flmul
                            ___fltol
                           ___xxtofl
 ---------------------------------------------------------------------------------
 (2) ___xxtofl                                            14    10      4     337
                                              0 COMMON    14    10      4
 ---------------------------------------------------------------------------------
 (2) ___fltol                                             10     6      4     230
                                             72 BANK0      8     4      4
                                              0 BANK1      2     2      0
                            ___fladd (ARG)
 ---------------------------------------------------------------------------------
 (2) ___flmul                                             26    18      8    1610
                                             26 BANK0     26    18      8
                          __Umul8_16
                            ___fldiv (ARG)
                           ___xxtofl (ARG)
 ---------------------------------------------------------------------------------
 (3) __Umul8_16                                            9     7      2     139
                                              0 COMMON     9     7      2
 ---------------------------------------------------------------------------------
 (2) ___fldiv                                             26    18      8    1126
                                              0 BANK0     26    18      8
                           ___xxtofl (ARG)
 ---------------------------------------------------------------------------------
 (2) ___fladd                                             20    12      8    1992
                                             52 BANK0     20    12      8
                            ___fldiv (ARG)
                            ___flmul (ARG)
                           ___xxtofl (ARG)
 ---------------------------------------------------------------------------------
 (1) _Read_ADC                                             3     1      2       0
                                              0 COMMON     3     1      2
 ---------------------------------------------------------------------------------
 (1) _ADC_Init                                             0     0      0       0
 ---------------------------------------------------------------------------------
 Estimated maximum stack depth 3
 ---------------------------------------------------------------------------------

 Call Graph Graphs:

 _main (ROOT)
   _ADC_Init
   _Read_ADC
   _Scale_Display
     ___fladd
       ___fldiv (ARG)
         ___xxtofl (ARG)
       ___flmul (ARG)
         __Umul8_16
         ___fldiv (ARG)
         ___xxtofl (ARG)
       ___xxtofl (ARG)
     ___fldiv
     ___flmul
     ___fltol
       ___fladd (ARG)
     ___xxtofl
   _Send_LED_Data
   _Split_Display
     ___lwdiv
     ___lwmod
       ___lwdiv (ARG)

Address spaces:
Name               Size   Autos  Total    Usage
BANK3               96      0      36     37.5%
BITBANK3            96      0       0      0.0%
BANK2               96      0       0      0.0%
BITBANK2            96      0       0      0.0%
BANK1               80     55      79     98.8%
BITBANK1            80      0       0      0.0%
BANK0               80     80      80    100.0%
BITBANK0            80      0       0      0.0%
COMMON              14     14      14    100.0%
BITCOMMON           14      0       0      0.0%
DATA                 0      0     209      0.0%
STACK                0      0       0      0.0%


Microchip Technology PIC Macro Assembler V3.00 build 20241204225717 
Symbol Table                                                                                   Wed Jun 04 16:12:29 2025

           ___fldiv@aexp 0039             ___fldiv@bexp 0038                        pc 0002  
           ___fldiv@sign 0031              _SSPSTATbits 0094                       l82 0BB6  
                     l85 0BC0                       l93 0C66                       l79 0BAD  
                     l96 0C8A                       l88 007A                       l98 0C90  
                     l99 0C94                       fsr 0004      __Umul8_16@word_mpld 0076  
                    l104 0FFF                      l410 0D4B                      l403 0D62  
                    l413 0D62                      l510 02A2                      l505 0271  
                    l514 0321                      l531 03E7                      l523 0494  
                    l516 02FC                      l612 0748                      l541 042E  
                    l606 07D6                      l535 040B                      l552 048A  
                    l544 046A                      l553 0494                      l625 0C08  
                    l618 07CC                      l650 0E2C                      l627 0C1A  
                    l651 0E3D                      l652 0EBD                      l590 023C  
                    l582 01BE                      l566 00D0                      l663 0E87  
                    l568 0244                      l664 0E93                      l656 0E6B  
                    l489 0CD6                      l499 0C52                      l588 0230  
                    fsr0 0004                      indf 0000             ___flmul@aexp 004C  
           ___flmul@bexp 004D             ___flmul@sign 0047             ___flmul@temp 0052  
           ___flmul@prod 004E             ___fltol@exp1 00A1                     l2001 0BAE  
                   l2003 0BB3                     l2011 0C53                     l2005 0BBA  
                   l2021 0C72                     l2031 0FC1                     l2023 0C7F  
                   l1401 0D15                     l2025 0EBE                     l2017 0C55  
                   l2009 000E                     l2041 0D7F                     l1403 0D19  
                   l1411 0D35                     l2027 0F2F                     l2019 0C6C  
                   l2051 0DA7                     l2043 0D80                     l2035 0D63  
                   l1501 0280                     l1421 0D55                     l2029 0F45  
                   l2061 0DC1                     l2053 0DAA                     l2045 0D82  
                   l2037 0D77                     l1511 0297                     l1503 0284  
                   l1431 0CA7                     l1423 0C95                     l2071 0DF3  
                   l2063 0DC9                     l2055 0DAB                     l2047 0D8D  
                   l2039 0D7C                     l1601 03C2                     l1521 02AE  
                   l1513 0298                     l1505 0285                     l1417 0D3C  
                   l1409 0D21                     l1441 0CC5                     l1433 0CA9  
                   l1425 0C97                     l2057 0DB0                     l2065 0DCE  
                   l2049 0D9E                     l1611 03F4                     l1603 03C5  
                   l1531 02B8                     l1523 02B0                     l1507 028A  
                   l1515 029A                     l1419 0D50                     l1443 0CCC  
                   l1435 0CAD                     l1427 0C9D                     l1451 0C21  
                   l2067 0DDF                     l2059 0DBF                     l1621 040F  
                   l1605 03CA                     l1541 02C2                     l1533 02BA  
                   l1525 02B2                     l1517 02A8                     l1509 028F  
                   l1701 00B8                     l1381 0C11                     l1373 0BF5  
                   l1437 0CBE                     l1429 0CA0                     l1445 0CD2  
                   l1461 0C3B                     l1453 0C24                     l2069 0DEB  
                   l2077 0DFC                     l1623 0413                     l1615 03FD  
                   l1607 03D9                     l1631 0420                     l1543 02C4  
                   l1535 02BC                     l1527 02B4                     l1519 02AC  
                   l1551 02CC                     l1471 0245                     l1711 00D8  
                   l1703 00BD                     l1383 0C16                     l1375 0BF7  
                   l1439 0CC4                     l1463 0C41                     l1455 0C2B  
                   l1641 0433                     l1633 0421                     l1625 0415  
                   l1617 0406                     l1609 03EF                     l1561 0309  
                   l1553 02CD                     l1545 02C6                     l1537 02BE  
                   l1529 02B6                     l1481 0254                     l1473 0249  
                   l1801 022F                     l1721 00F4                     l1713 00E4  
                   l1705 00C5                     l1377 0BFE                     l1393 0CEF  
                   l1465 0C48                     l1457 0C2D                     l1449 0C1B  
                   l1651 046F                     l1643 0438                     l1635 0425  
                   l1627 041A                     l1619 040A                     l1571 0325  
                   l1563 030D                     l1555 02E4                     l1547 02C8  
                   l1539 02C0                     l1483 0259                     l1491 0269  
                   l1475 024B                     l1803 0234                     l1731 011F  
                   l1715 00E6                     l1707 00C6                     l1379 0C02  
                   l1395 0D06                     l1387 0CD7                     l1459 0C31  
                   l1467 0C4E                     l1661 0486                     l1653 0474  
                   l1645 0446                     l1637 042B                     l1629 041C  
                   l1581 034E                     l1573 032A                     l1565 030E  
                   l1557 0300                     l1549 02CA                     l1493 0273  
                   l1485 025E                     l1477 024F                     l1805 0238  
                   l1741 0144                     l1733 0127                     l1725 00FD  
                   l1709 00C8                     l1901 070B                     l1821 04A3  
                   l1813 0495                     l1397 0D09                     l1389 0CE4  
                   l1663 0488                     l1655 047C                     l1647 044A  
                   l1591 0360                     l1583 0352                     l1567 0317  
                   l1559 0307                     l1495 0275                     l1487 0266  
                   l1479 0253                     l1807 023A                     l1751 016F  
                   l1743 0145                     l1735 0129                     l1727 010F  
                   l1719 00EF                     l1671 007F                     l1903 0714  
                   l1911 0728                     l1831 04B8                     l1823 04A4  
                   l1815 0499                     l1399 0D11                     l1665 048F  
                   l1657 0481                     l1649 0468                     l1593 0369  
                   l1585 0359                     l1577 0333                     l1569 0319  
                   l1497 027B                     l1489 0267                     l1761 018A  
                   l1737 012E                     l1745 014E                     l1753 0171  
                   l1729 0117                     l1681 008F                     l1673 0081  
                   l1913 072C                     l1905 0718                     l1841 04CC  
                   l1833 04C0                     l1825 04A9                     l1817 049B  
                   l1667 0493                     l1659 0482                     l1587 035B  
                   l1579 034A                     l1595 036C                     l1499 027C  
                   l1771 01A2                     l1763 018E                     l1755 0177  
                   l1747 0160                     l1739 0140                     l1691 00A7  
                   l1683 0094                     l1675 0085                     l1931 077D  
                   l1923 074D                     l1915 072D                     l1907 0719  
                   l1851 04E8                     l1843 04D1                     l1835 04C3  
                   l1827 04AE                     l1819 049F                     l1597 0382  
                   l1589 035F                     l1781 01C3                     l1773 01A3  
                   l1765 018F                     l1757 017F                     l1749 0161  
                   l1693 00AA                     l1685 009C                     l1677 0089  
                   l1669 007B                     l1941 07B4                     l1925 0752  
                   l1933 0783                     l1917 0731                     l1909 0722  
                   l1861 0509                     l1853 04ED                     l1845 04D6  
                   l1837 04C7                     l1829 04B6                     l1599 03C0  
                   l1783 01C8                     l1791 01F9                     l1775 01A7  
                   l1767 0198                     l1759 0181                     l1695 00AE  
                   l1687 009D                     l1679 008A                     l1951 07CE  
                   l1943 07B6                     l1935 0790                     l1927 0760  
                   l1919 0745                     l1871 0593                     l1863 0516  
                   l1855 04F2                     l1847 04DE                     l1839 04CB  
                   l1793 0206                     l1785 01D6                     l1777 01BB  
                   l1769 019E                     l1697 00B2                     l1689 009F  
                   l1945 07C2                     l1937 079B                     l1929 0764  
                   l1881 05F1                     l1873 05AF                     l1865 0531  
                   l1849 04E0                     l1961 0E24                     l1795 0214  
                   l1787 01DA                     l1699 00B3                     l1947 07C6  
                   l1939 07AA                     l1891 067B                     l1883 060E  
                   l1875 05B8                     l1867 054D                     l1859 04FB  
                   l1971 0E52                     l1963 0E34                     l1955 0E0B  
                   l1797 0223                     l1789 01F3                     l1949 07C7  
                   l1893 06A6                     l1885 0625                     l1877 05C6  
                   l1869 0577                     l1981 0E81                     l1973 0E54  
                   l1957 0E10                     l1799 0227                     l1895 06CC  
                   l1887 0642                     l1879 05E3                     l1991 0EB4  
                   l1983 0E8B                     l1975 0E62                     l1967 0E40  
                   l1959 0E14                     l1897 06F4                     l1889 066D  
                   l1993 0EB5                     l1985 0E95                     l1977 0E72  
                   l1969 0E4B                     l1899 06FD                     l1987 0EAB  
                   l1979 0E7D                     l1997 0BA6                     l1989 0EB0  
                   l1999 0BAA                     u2000 02E4                     u2001 02E3  
                   u2010 02EF                     u2011 02ED                     u2100 034E  
                   u2020 02F0                     u2101 034D                     u2005 02E0  
                   u2110 0352                     u2030 0300                     u2111 0351  
                   u2031 02FF                     u2120 035F                     u2040 030D  
                   u3000 0790                     u2121 035E                     u2041 030C  
                   u3001 078F                     u2210 040A                     u3010 07AA  
                   u2211 0409                     u3011 07A9                     u2300 0459  
                   u2220 040F                     u2140 0382                     u2060 0321  
                   u3020 07C6                     u2221 040E                     u2205 03FF  
                   u2141 0381                     u2061 0320                     u3021 07C5  
                   u3005 078C                     u2310 0468                     u2230 041A  
                   u2070 0325                     u3110 0E81                     u3030 0E10  
                   u2311 0467                     u2231 0419                     u2151 0399  
                   u2143 037E                     u2135 0362                     u2071 0324  
                   u2055 0310                     u3015 07A6                     u3111 0E80  
                   u3031 0E0F                     u2320 046F                     u2240 0420  
                   u2160 03AD                     u2152 039A                     u2080 032A  
                   u2400 00B2                     u3120 0E87                     u3040 0E14  
                   u3200 0C90                     u2321 046E                     u2305 0454  
                   u2241 041F                     u2161 03AE                     u2153 039F  
                   u2081 0329                     u2401 00B1                     u3121 0E86  
                   u3105 0E76                     u3041 0E13                     u3201 0C8F  
                   u2330 0474                     u2250 0425                     u2170 03CA  
                   u2162 03B3                     u2154 03A0                     u2410 00B8  
                   u3130 0E8B                     u3050 0E34                     u3210 0F35  
                   u2331 0473                     u2251 0424                     u2171 03C9  
                   u2163 03B4                     u2155 03A5                     u2091 033C  
                   u2411 00B7                     u3131 0E8A                     u3051 0E33  
                   u2340 0481                     u2260 042B                     u2180 03EF  
                   u2156 03A6                     u2092 0343                     u2500 0160  
                   u2420 00BD                     u1700 0D19                     u3140 0EA0  
                   u2341 0480                     u2261 042A                     u2181 03EE  
                   u2093 034A                     u2501 015F                     u2421 00BC  
                   u1701 0D18                     u2350 0486                     u2270 0432  
                   u2190 03F4                     u2510 0177                     u2430 00D8  
                   u1710 0D20                     u3150 0EB0                     u3070 0E51  
                   u3230 0DA7                     u2351 0485                     u2271 0431  
                   u2191 03F3                     u2511 0176                     u2431 00D7  
                   u1711 0D1F                     u3151 0EAF                     u3071 0E50  
                   u3231 0DA6                     u2360 0493                     u2280 0438  
                   u2600 01C8                     u2520 017F                     u2440 00F4  
                   u3160 0EB4                     u1800 0CAD                     u3240 0DB0  
                   u2361 0492                     u2281 0437                     u2601 01C7  
                   u2521 017E                     u2505 015C                     u2441 00F3  
                   u3161 0EB3                     u3145 0E9B                     u3065 0E43  
                   u3225 0F48                     u1801 0CAC                     u3241 0DAF  
                   u3170 0BBA                     u2290 044A                     u2610 01DA  
                   u2450 012E                     u2370 0089                     u1650 0C02  
                   u1730 0D34                     u3090 0E71                     u3250 0DBF  
                   u3171 0BB9                     u3307 0BB0                     u2291 0449  
                   u2611 01D9                     u2451 012D                     u2371 0088  
                   u1651 0C01                     u1731 0D33                     u3091 0E70  
                   u3251 0DBE                     u2620 01E9                     u2540 018E  
                   u2380 008F                     u2700 04D1                     u1740 0D3B  
                   u3180 0C6C                     u1820 0CBE                     u1900 0C4E  
                   u3260 0DC7                     u2541 018D                     u2381 008E  
                   u2701 04D0                     u1741 0D3A                     u1725 0D22  
                   u3085 0E63                     u3181 0C6B                     u1821 0CBD  
                   u1901 0C4D                     u3261 0DC5                     u1910 0253  
                   u2630 0206                     u2390 0094                     u1670 0C16  
                   u2710 04D6                     u3190 0C7F                     u3270 0DC8  
                   u1911 0252                     u2631 0205                     u2535 0183  
                   u2391 0093                     u1671 0C15                     u2711 04D5  
                   u3191 0C7E                     u1815 0CAE                     u1920 0259  
                   u2640 0223                     u2560 01A2                     u2480 0144  
                   u2720 04ED                     u1760 0D50                     u1680 0CE4  
                   u1840 0CD2                     u3280 0DCE                     u1921 0258  
                   u2641 0222                     u2625 01E4                     u2561 01A1  
                   u2481 0143                     u2465 0130                     u1665 0C09  
                   u2801 0600                     u2721 04EC                     u1761 0D4F  
                   u1681 0CE3                     u1841 0CD1                     u1825 0CBA  
                   u3281 0DCD                     u1930 025E                     u2650 0238  
                   u2570 01A7                     u2802 0607                     u2730 04F2  
                   u1770 0D55                     u1690 0CFF                     u1850 0C21  
                   u1931 025D                     u2651 0237                     u2635 0202  
                   u2571 01A6                     u2555 0191                     u2475 0139  
                   u2803 060E                     u2731 04F1                     u1771 0D54  
                   u1755 0D40                     u3195 0C7B                     u1835 0CC6  
                   u1851 0C20                     u1940 027B                     u2580 01BB  
                   u2660 04A3                     u1780 0C9D                     u1941 027A  
                   u2645 021F                     u2581 01BA                     u2821 0634  
                   u2741 053F                     u2661 04A2                     u1781 0C9C  
                   u1950 0284                     u2590 01C2                     u2910 0718  
                   u2822 063B                     u2742 0546                     u2670 04A9  
                   u1870 0C31                     u1951 0283                     u2591 01C1  
                   u2495 0147                     u2911 0717                     u2831 065F  
                   u2823 0642                     u2815 0610                     u2751 055B  
                   u2743 054D                     u2671 04A8                     u1695 0CFA  
                   u1871 0C30                     u1960 028A                     u2832 0666  
                   u2752 0562                     u2680 04AE                     u1880 0C3B  
                   u1961 0289                     u2905 070D                     u2841 068A  
                   u2833 066D                     u2761 0585                     u2753 0569  
                   u2681 04AD                     u1881 0C3A                     u1865 0C25  
                   u3297 0E02                     u1970 028F                     u2930 072C  
                   u2850 06B2                     u2842 0691                     u2762 058C  
                   u2690 04CB                     u1971 028E                     u2931 072B  
                   u2843 0698                     u2771 05A1                     u2763 0593  
                   u2691 04CA                     u1795 0CA1                     u1980 02A8  
                   u2940 0731                     u2772 05A8                     u1981 02A7  
                   u2941 0730                     u2925 071B                     u2861 06BE  
                   u2773 05AF                     u1885 0C37                     u1990 02AC  
                   u2950 0745                     u2870 06DA                     u2862 06C5  
                   u1991 02AB                     u2951 0744                     u2863 06CC  
                   u2855 06AD                     u2791 05D5                     u1895 0C42  
                   u2960 074C                     u2792 05DC                     u2961 074B  
                   u2881 06E6                     u2793 05E3                     u2785 05B1  
                   u2970 0752                     u2882 06ED                     u2971 0751  
                   u2883 06F4                     u2875 06D5                     u2980 0764  
                   u2981 0763                     u2990 0773                     u2895 06F6  
                   u2995 076E                     _main 0D63                     _mode 00E3  
                   btemp 007E         __end_of_ADC_Init 0BAE                     start 0000  
        ??_Split_Display 007C          ___fldiv@new_exp 0032            ___fltol@sign1 00A0  
        __end_of___fladd 0495                    ?_main 0070          __end_of___fldiv 0245  
        __end_of___flmul 07D7          __end_of___fltol 0D63          __end_of___lwdiv 0CD7  
        __end_of___lwmod 0C53                    pclath 000A                    status 0003  
                  wtemp0 007E          __initialization 07D7             __end_of_main 0E0A  
       __end_of_Read_ADC 0BC1                   ??_main 00D1                   _ADCON0 001F  
                 _ADCON1 009F                   _ADRESH 001E                   _ADRESL 009E  
                 _TRISA0 0428                   _TRISB0 0430                   _TRISB1 0431  
                 _TRISC0 0438                   _TRISC3 043B                   _TRISC5 043D  
                 _SSPBUF 0013                   _SSPCON 0014         __end_of___xxtofl 0EBE  
              ??___fladd 005C                ??___fldiv 0028                ??___flmul 0042  
              ??___fltol 006C            _Scale_Display 0EBE                   _digits 00D7  
              ??___lwdiv 0074                ??___lwmod 007B                ?_ADC_Init 0070  
           ___xxtofl@arg 007A             ___xxtofl@exp 0079             ___xxtofl@val 0070  
__end_of__initialization 07FC               ___fltol@f1 0068           __pcstackCOMMON 0070  
         ?_Scale_Display 00A2             __pidataBANK1 0005             __pidataBANK3 0BD4  
             ??_ADC_Init 0070               __pbssBANK1 00D7               __pbssBANK3 01B0  
              ?_Read_ADC 0070        __end_of__Umul8_16 0C1B            _Send_LED_Data 0C53  
             __pmaintext 0D63               _flashCount 00E4                ?___xxtofl 0070  
                _SSPSTAT 0094               __stringtab 0800               ??_Read_ADC 0072  
         ?_Send_LED_Data 0070          ??_Scale_Display 00A5    __end_of_Split_Display 007B  
                ___fladd 0245                  ___fldiv 007B                  ___flmul 0495  
                ___fltol 0CD7                  _adc_val 00EC                  ___lwdiv 0C95  
                ___lwmod 0C1B                  __ptext1 000E                  __ptext2 0C1B  
                __ptext3 0C95                  __ptext4 0C53                  __ptext5 0EBE  
                __ptext6 0E0A                  __ptext7 0CD7                  __ptext8 0495  
                __ptext9 0BF4               ??___xxtofl 0074                  clrloop0 0007  
   end_of_initialization 07FC                _PORTCbits 0007             _displayValue 00DD  
            ___fladd@grs 0067            ___xxtofl@sign 0078                _TRISCbits 0087  
            ___fldiv@grs 0034              ___fldiv@rem 002D              ___flmul@grs 0048  
        ??_Send_LED_Data 0072      start_initialization 07D7               init_fetch0 0BC1  
              __Umul8_16 0BF4              __pdataBANK1 00EE              __pdataBANK3 0190  
              ___fladd@a 0058                ___fladd@b 0054                ___fldiv@a 0020  
              ___fldiv@b 0024                ___flmul@a 003E                ___flmul@b 003A  
              ___latbits 0002            __pcstackBANK0 0020            __pcstackBANK1 00A0  
              __pnvBANK1 00EA          main@flash_state 00E1         ___lwdiv@dividend 0072  
              _digit_val 00E6                 ?___fladd 0054                 ?___fldiv 0020  
               ?___flmul 003A                 ?___fltol 0068               ?__Umul8_16 0070  
               ?___lwdiv 0070                 ?___lwmod 0077                _flashFlag 00EE  
              __pstrings 0800     Scale_Display@adc_val 00A2                 _ADC_Init 0BA6  
   Scale_Display@current 00C9         ___lwdiv@quotient 0074                clear_ram0 0006  
            _flash_timer 00DB                 _GO_nDONE 00F9    __end_of_Scale_Display 1000  
              main@F1448 01B0              _displayMode 00E5              _display_val 00EA  
            __stringbase 0805                main@blank 00D3      Send_LED_Data@digits 0070  
               _Read_ADC 0BAE     Split_Display@display 0020              ??__Umul8_16 0072  
               _adcValue 00DF       __end_of__stringtab 0806   Scale_Display@scale_max 00A9  
               ___xxtofl 0E0A          _MODE_FONT_TABLE 0810          ___lwdiv@divisor 0070  
        ___lwdiv@counter 0076                 __ptext10 007B                 __ptext11 0245  
               __ptext12 0BAE                 __ptext13 0BA6                 _flash_on 00E2  
  __end_of_Send_LED_Data 0C95           Send_LED_Data@i 0073            _Split_Display 000E  
         _LED_FONT_TABLE 0806      Split_Display@digits 0022       Scale_Display@F1443 0190  
               init_ram0 0BC5         ___lwmod@dividend 0079                stringcode 0800  
 __end_of_LED_FONT_TABLE 0810           ?_Split_Display 0020        Send_LED_Data@mode 0071  
__end_of_MODE_FONT_TABLE 0818   __Umul8_16@multiplicand 0070          ___lwmod@divisor 0077  
      Scale_Display@flow 00CD          ___lwmod@counter 007B        Scale_Display@mode 00A4  
               stringdir 0800                 stringtab 0800            ___fladd@signs 0064  
           ___fladd@aexp 0065             ___fladd@bexp 0066     __Umul8_16@multiplier 0078  
      __Umul8_16@product 0074  
